
testsoc.elf:     file format elf32-littleriscv


Disassembly of section .vectors:

00000000 <_stack_start-0x108000>:
   0:	00000013          	nop
   4:	00000013          	nop
   8:	00000013          	nop
   c:	00000013          	nop
  10:	00000013          	nop
  14:	00000013          	nop
  18:	00000013          	nop
  1c:	00000013          	nop
  20:	00000013          	nop
  24:	00000013          	nop
  28:	1140006f          	j	13c <ISR_CAN_ASM>
  2c:	1280006f          	j	154 <ISR_I2C_ASM>
  30:	13c0006f          	j	16c <ISR_UART1_ASM>
  34:	1500006f          	j	184 <ISR_UART0_ASM>
  38:	1640006f          	j	19c <ISR_GPIO_ASM>
  3c:	1a80006f          	j	1e4 <ISR_SPI1M0_ASM>
  40:	1bc0006f          	j	1fc <ISR_SPI1M1_ASM>
  44:	1700006f          	j	1b4 <ISR_SPI0M0_ASM>
  48:	1840006f          	j	1cc <ISR_SPI0M1_ASM>
  4c:	2400006f          	j	28c <ISR_TA1_OVF_ASM>
  50:	2240006f          	j	274 <ISR_TA1_CMP_ASM>
  54:	2680006f          	j	2bc <ISR_TB1_OVF_ASM>
  58:	24c0006f          	j	2a4 <ISR_TB1_CMP_ASM>
  5c:	1d00006f          	j	22c <ISR_TA0_OVF_ASM>
  60:	1b40006f          	j	214 <ISR_TA0_CMP_ASM>
  64:	1f80006f          	j	25c <ISR_TB0_OVF_ASM>
  68:	1dc0006f          	j	244 <ISR_TB0_CMP_ASM>
  6c:	2680006f          	j	2d4 <ISR_ELAP_R_ASM>
  70:	27c0006f          	j	2ec <ISR_ELAP_BR_ASM>
  74:	2900006f          	j	304 <ISR_ELAP_BA_ASM>
  78:	2a40006f          	j	31c <ISR_ELAP_TRIG_COL_ASM>
  7c:	2b80006f          	j	334 <ISR_ELAP_BUF_FULL_ASM>
  80:	00c0006f          	j	8c <_stext>
  84:	2c80006f          	j	34c <illegal_insn_handler>
  88:	2dc0006f          	j	364 <ecall_insn_handler>

Disassembly of section .text:

0000008c <_stext>:
      8c:	00000093          	li	ra,0
      90:	00008113          	mv	sp,ra
      94:	00008193          	mv	gp,ra
      98:	00008213          	mv	tp,ra
      9c:	00008293          	mv	t0,ra
      a0:	00008313          	mv	t1,ra
      a4:	00008393          	mv	t2,ra
      a8:	00008413          	mv	s0,ra
      ac:	00008493          	mv	s1,ra
      b0:	00008513          	mv	a0,ra
      b4:	00008593          	mv	a1,ra
      b8:	00008613          	mv	a2,ra
      bc:	00008693          	mv	a3,ra
      c0:	00008713          	mv	a4,ra
      c4:	00008793          	mv	a5,ra
      c8:	00008813          	mv	a6,ra
      cc:	00008893          	mv	a7,ra
      d0:	00008913          	mv	s2,ra
      d4:	00008993          	mv	s3,ra
      d8:	00008a13          	mv	s4,ra
      dc:	00008a93          	mv	s5,ra
      e0:	00008b13          	mv	s6,ra
      e4:	00008b93          	mv	s7,ra
      e8:	00008c13          	mv	s8,ra
      ec:	00008c93          	mv	s9,ra
      f0:	00008d13          	mv	s10,ra
      f4:	00008d93          	mv	s11,ra
      f8:	00008e13          	mv	t3,ra
      fc:	00008e93          	mv	t4,ra
     100:	00008f13          	mv	t5,ra
     104:	00008f93          	mv	t6,ra
     108:	00108117          	auipc	sp,0x108
     10c:	ef810113          	addi	sp,sp,-264 # 108000 <_stack_start>

00000110 <_start>:
     110:	00100d17          	auipc	s10,0x100
     114:	7e8d0d13          	addi	s10,s10,2024 # 1008f8 <seed1_volatile>
     118:	00100d97          	auipc	s11,0x100
     11c:	7fcd8d93          	addi	s11,s11,2044 # 100914 <_end>
     120:	01bd5863          	bge	s10,s11,130 <fbss_zero_loop_end>

00000124 <fbss_zero_loop>:
     124:	000d2023          	sw	zero,0(s10)
     128:	004d0d13          	addi	s10,s10,4
     12c:	ffaddce3          	bge	s11,s10,124 <fbss_zero_loop>

00000130 <fbss_zero_loop_end>:
     130:	00000513          	li	a0,0
     134:	00000593          	li	a1,0
     138:	58d060ef          	jal	ra,6ec4 <main>

0000013c <ISR_CAN_ASM>:
     13c:	fa010113          	addi	sp,sp,-96
     140:	04112e23          	sw	ra,92(sp)
     144:	238000ef          	jal	ra,37c <store_regs>
     148:	00000097          	auipc	ra,0x0
     14c:	2ac08093          	addi	ra,ra,684 # 3f4 <end_except>
     150:	48d0606f          	j	6ddc <ISR_CAN>

00000154 <ISR_I2C_ASM>:
     154:	fa010113          	addi	sp,sp,-96
     158:	04112e23          	sw	ra,92(sp)
     15c:	220000ef          	jal	ra,37c <store_regs>
     160:	00000097          	auipc	ra,0x0
     164:	29408093          	addi	ra,ra,660 # 3f4 <end_except>
     168:	4790606f          	j	6de0 <ISR_I2C>

0000016c <ISR_UART1_ASM>:
     16c:	fa010113          	addi	sp,sp,-96
     170:	04112e23          	sw	ra,92(sp)
     174:	208000ef          	jal	ra,37c <store_regs>
     178:	00000097          	auipc	ra,0x0
     17c:	27c08093          	addi	ra,ra,636 # 3f4 <end_except>
     180:	4650606f          	j	6de4 <ISR_UART1>

00000184 <ISR_UART0_ASM>:
     184:	fa010113          	addi	sp,sp,-96
     188:	04112e23          	sw	ra,92(sp)
     18c:	1f0000ef          	jal	ra,37c <store_regs>
     190:	00000097          	auipc	ra,0x0
     194:	26408093          	addi	ra,ra,612 # 3f4 <end_except>
     198:	4510606f          	j	6de8 <ISR_UART0>

0000019c <ISR_GPIO_ASM>:
     19c:	fa010113          	addi	sp,sp,-96
     1a0:	04112e23          	sw	ra,92(sp)
     1a4:	1d8000ef          	jal	ra,37c <store_regs>
     1a8:	00000097          	auipc	ra,0x0
     1ac:	24c08093          	addi	ra,ra,588 # 3f4 <end_except>
     1b0:	43d0606f          	j	6dec <ISR_GPIO>

000001b4 <ISR_SPI0M0_ASM>:
     1b4:	fa010113          	addi	sp,sp,-96
     1b8:	04112e23          	sw	ra,92(sp)
     1bc:	1c0000ef          	jal	ra,37c <store_regs>
     1c0:	00000097          	auipc	ra,0x0
     1c4:	23408093          	addi	ra,ra,564 # 3f4 <end_except>
     1c8:	4290606f          	j	6df0 <ISR_SPI0M0>

000001cc <ISR_SPI0M1_ASM>:
     1cc:	fa010113          	addi	sp,sp,-96
     1d0:	04112e23          	sw	ra,92(sp)
     1d4:	1a8000ef          	jal	ra,37c <store_regs>
     1d8:	00000097          	auipc	ra,0x0
     1dc:	21c08093          	addi	ra,ra,540 # 3f4 <end_except>
     1e0:	4150606f          	j	6df4 <ISR_SPI0M1>

000001e4 <ISR_SPI1M0_ASM>:
     1e4:	fa010113          	addi	sp,sp,-96
     1e8:	04112e23          	sw	ra,92(sp)
     1ec:	190000ef          	jal	ra,37c <store_regs>
     1f0:	00000097          	auipc	ra,0x0
     1f4:	20408093          	addi	ra,ra,516 # 3f4 <end_except>
     1f8:	4010606f          	j	6df8 <ISR_SPI1M0>

000001fc <ISR_SPI1M1_ASM>:
     1fc:	fa010113          	addi	sp,sp,-96
     200:	04112e23          	sw	ra,92(sp)
     204:	178000ef          	jal	ra,37c <store_regs>
     208:	00000097          	auipc	ra,0x0
     20c:	1ec08093          	addi	ra,ra,492 # 3f4 <end_except>
     210:	3ed0606f          	j	6dfc <ISR_SPI1M1>

00000214 <ISR_TA0_CMP_ASM>:
     214:	fa010113          	addi	sp,sp,-96
     218:	04112e23          	sw	ra,92(sp)
     21c:	160000ef          	jal	ra,37c <store_regs>
     220:	00000097          	auipc	ra,0x0
     224:	1d408093          	addi	ra,ra,468 # 3f4 <end_except>
     228:	43d0606f          	j	6e64 <ISR_TA0_CMP>

0000022c <ISR_TA0_OVF_ASM>:
     22c:	fa010113          	addi	sp,sp,-96
     230:	04112e23          	sw	ra,92(sp)
     234:	148000ef          	jal	ra,37c <store_regs>
     238:	00000097          	auipc	ra,0x0
     23c:	1bc08093          	addi	ra,ra,444 # 3f4 <end_except>
     240:	4110606f          	j	6e50 <ISR_TA0_OVF>

00000244 <ISR_TB0_CMP_ASM>:
     244:	fa010113          	addi	sp,sp,-96
     248:	04112e23          	sw	ra,92(sp)
     24c:	130000ef          	jal	ra,37c <store_regs>
     250:	00000097          	auipc	ra,0x0
     254:	1a408093          	addi	ra,ra,420 # 3f4 <end_except>
     258:	4350606f          	j	6e8c <ISR_TB0_CMP>

0000025c <ISR_TB0_OVF_ASM>:
     25c:	fa010113          	addi	sp,sp,-96
     260:	04112e23          	sw	ra,92(sp)
     264:	118000ef          	jal	ra,37c <store_regs>
     268:	00000097          	auipc	ra,0x0
     26c:	18c08093          	addi	ra,ra,396 # 3f4 <end_except>
     270:	4090606f          	j	6e78 <ISR_TB0_OVF>

00000274 <ISR_TA1_CMP_ASM>:
     274:	fa010113          	addi	sp,sp,-96
     278:	04112e23          	sw	ra,92(sp)
     27c:	100000ef          	jal	ra,37c <store_regs>
     280:	00000097          	auipc	ra,0x0
     284:	17408093          	addi	ra,ra,372 # 3f4 <end_except>
     288:	38d0606f          	j	6e14 <ISR_TA1_CMP>

0000028c <ISR_TA1_OVF_ASM>:
     28c:	fa010113          	addi	sp,sp,-96
     290:	04112e23          	sw	ra,92(sp)
     294:	0e8000ef          	jal	ra,37c <store_regs>
     298:	00000097          	auipc	ra,0x0
     29c:	15c08093          	addi	ra,ra,348 # 3f4 <end_except>
     2a0:	3610606f          	j	6e00 <ISR_TA1_OVF>

000002a4 <ISR_TB1_CMP_ASM>:
     2a4:	fa010113          	addi	sp,sp,-96
     2a8:	04112e23          	sw	ra,92(sp)
     2ac:	0d0000ef          	jal	ra,37c <store_regs>
     2b0:	00000097          	auipc	ra,0x0
     2b4:	14408093          	addi	ra,ra,324 # 3f4 <end_except>
     2b8:	3850606f          	j	6e3c <ISR_TB1_CMP>

000002bc <ISR_TB1_OVF_ASM>:
     2bc:	fa010113          	addi	sp,sp,-96
     2c0:	04112e23          	sw	ra,92(sp)
     2c4:	0b8000ef          	jal	ra,37c <store_regs>
     2c8:	00000097          	auipc	ra,0x0
     2cc:	12c08093          	addi	ra,ra,300 # 3f4 <end_except>
     2d0:	3590606f          	j	6e28 <ISR_TB1_OVF>

000002d4 <ISR_ELAP_R_ASM>:
     2d4:	fa010113          	addi	sp,sp,-96
     2d8:	04112e23          	sw	ra,92(sp)
     2dc:	0a0000ef          	jal	ra,37c <store_regs>
     2e0:	00000097          	auipc	ra,0x0
     2e4:	11408093          	addi	ra,ra,276 # 3f4 <end_except>
     2e8:	3b90606f          	j	6ea0 <ISR_ELAP_R>

000002ec <ISR_ELAP_BR_ASM>:
     2ec:	fa010113          	addi	sp,sp,-96
     2f0:	04112e23          	sw	ra,92(sp)
     2f4:	088000ef          	jal	ra,37c <store_regs>
     2f8:	00000097          	auipc	ra,0x0
     2fc:	0fc08093          	addi	ra,ra,252 # 3f4 <end_except>
     300:	3b50606f          	j	6eb4 <ISR_ELAP_BR>

00000304 <ISR_ELAP_BA_ASM>:
     304:	fa010113          	addi	sp,sp,-96
     308:	04112e23          	sw	ra,92(sp)
     30c:	070000ef          	jal	ra,37c <store_regs>
     310:	00000097          	auipc	ra,0x0
     314:	0e408093          	addi	ra,ra,228 # 3f4 <end_except>
     318:	3a10606f          	j	6eb8 <ISR_ELAP_BA>

0000031c <ISR_ELAP_TRIG_COL_ASM>:
     31c:	fa010113          	addi	sp,sp,-96
     320:	04112e23          	sw	ra,92(sp)
     324:	058000ef          	jal	ra,37c <store_regs>
     328:	00000097          	auipc	ra,0x0
     32c:	0cc08093          	addi	ra,ra,204 # 3f4 <end_except>
     330:	38d0606f          	j	6ebc <ISR_ELAP_TRIG_COL>

00000334 <ISR_ELAP_BUF_FULL_ASM>:
     334:	fa010113          	addi	sp,sp,-96
     338:	04112e23          	sw	ra,92(sp)
     33c:	040000ef          	jal	ra,37c <store_regs>
     340:	00000097          	auipc	ra,0x0
     344:	0b408093          	addi	ra,ra,180 # 3f4 <end_except>
     348:	3790606f          	j	6ec0 <ISR_ELAP_BUF_FULL>

0000034c <illegal_insn_handler>:
     34c:	fa010113          	addi	sp,sp,-96
     350:	04112e23          	sw	ra,92(sp)
     354:	028000ef          	jal	ra,37c <store_regs>
     358:	00000097          	auipc	ra,0x0
     35c:	09c08093          	addi	ra,ra,156 # 3f4 <end_except>
     360:	2750606f          	j	6dd4 <illegal_insn_handler_c>

00000364 <ecall_insn_handler>:
     364:	fa010113          	addi	sp,sp,-96
     368:	04112e23          	sw	ra,92(sp)
     36c:	010000ef          	jal	ra,37c <store_regs>
     370:	00000097          	auipc	ra,0x0
     374:	08408093          	addi	ra,ra,132 # 3f4 <end_except>
     378:	2610606f          	j	6dd8 <ecall_insn_handler_c>

0000037c <store_regs>:
     37c:	00312023          	sw	gp,0(sp)
     380:	00412223          	sw	tp,4(sp)
     384:	00512423          	sw	t0,8(sp)
     388:	00612623          	sw	t1,12(sp)
     38c:	00712823          	sw	t2,16(sp)
     390:	00a12a23          	sw	a0,20(sp)
     394:	00b12c23          	sw	a1,24(sp)
     398:	00c12e23          	sw	a2,28(sp)
     39c:	02d12023          	sw	a3,32(sp)
     3a0:	02e12223          	sw	a4,36(sp)
     3a4:	02f12423          	sw	a5,40(sp)
     3a8:	03012623          	sw	a6,44(sp)
     3ac:	03112823          	sw	a7,48(sp)
     3b0:	03c12a23          	sw	t3,52(sp)
     3b4:	03d12c23          	sw	t4,56(sp)
     3b8:	03e12e23          	sw	t5,60(sp)
     3bc:	05f12023          	sw	t6,64(sp)
     3c0:	7b002e73          	csrr	t3,dcsr
     3c4:	7b102ef3          	csrr	t4,dpc
     3c8:	7b202f73          	csrr	t5,dscratch0
     3cc:	05c12223          	sw	t3,68(sp)
     3d0:	05d12423          	sw	t4,72(sp)
     3d4:	05e12623          	sw	t5,76(sp)
     3d8:	7b402e73          	csrr	t3,0x7b4
     3dc:	7b502ef3          	csrr	t4,0x7b5
     3e0:	7b602f73          	csrr	t5,0x7b6
     3e4:	05c12823          	sw	t3,80(sp)
     3e8:	05d12a23          	sw	t4,84(sp)
     3ec:	05e12c23          	sw	t5,88(sp)
     3f0:	00008067          	ret

000003f4 <end_except>:
     3f4:	05012e03          	lw	t3,80(sp)
     3f8:	05412e83          	lw	t4,84(sp)
     3fc:	05812f03          	lw	t5,88(sp)
     400:	7b4e1073          	csrw	0x7b4,t3
     404:	7b5e9073          	csrw	0x7b5,t4
     408:	7b6f1073          	csrw	0x7b6,t5
     40c:	04412e03          	lw	t3,68(sp)
     410:	04812e83          	lw	t4,72(sp)
     414:	04c12f03          	lw	t5,76(sp)
     418:	7b0e1073          	csrw	dcsr,t3
     41c:	7b1e9073          	csrw	dpc,t4
     420:	7b2f1073          	csrw	dscratch0,t5
     424:	00012183          	lw	gp,0(sp)
     428:	00412203          	lw	tp,4(sp)
     42c:	00812283          	lw	t0,8(sp)
     430:	00c12303          	lw	t1,12(sp)
     434:	01012383          	lw	t2,16(sp)
     438:	01412503          	lw	a0,20(sp)
     43c:	01812583          	lw	a1,24(sp)
     440:	01c12603          	lw	a2,28(sp)
     444:	02012683          	lw	a3,32(sp)
     448:	02412703          	lw	a4,36(sp)
     44c:	02812783          	lw	a5,40(sp)
     450:	02c12803          	lw	a6,44(sp)
     454:	03012883          	lw	a7,48(sp)
     458:	03412e03          	lw	t3,52(sp)
     45c:	03812e83          	lw	t4,56(sp)
     460:	03c12f03          	lw	t5,60(sp)
     464:	04012f83          	lw	t6,64(sp)
     468:	05c12083          	lw	ra,92(sp)
     46c:	06010113          	addi	sp,sp,96
     470:	30200073          	mret

00000474 <_fini>:
     474:	00008067          	ret

00000478 <modf>:
     478:	4145d793          	srai	a5,a1,0x14
     47c:	ff010113          	addi	sp,sp,-16
     480:	7ff7f793          	andi	a5,a5,2047
     484:	00812423          	sw	s0,8(sp)
     488:	00912223          	sw	s1,4(sp)
     48c:	01212023          	sw	s2,0(sp)
     490:	00112623          	sw	ra,12(sp)
     494:	c0178713          	addi	a4,a5,-1023
     498:	01300693          	li	a3,19
     49c:	00058413          	mv	s0,a1
     4a0:	00050493          	mv	s1,a0
     4a4:	00060913          	mv	s2,a2
     4a8:	04e6cc63          	blt	a3,a4,500 <modf+0x88>
     4ac:	10074a63          	bltz	a4,5c0 <modf+0x148>
     4b0:	001007b7          	lui	a5,0x100
     4b4:	fff78793          	addi	a5,a5,-1 # fffff <__DTOR_END__+0xf7feb>
     4b8:	40e7d7b3          	sra	a5,a5,a4
     4bc:	00b7f733          	and	a4,a5,a1
     4c0:	00a76733          	or	a4,a4,a0
     4c4:	06071a63          	bnez	a4,538 <modf+0xc0>
     4c8:	00040793          	mv	a5,s0
     4cc:	800006b7          	lui	a3,0x80000
     4d0:	00992023          	sw	s1,0(s2)
     4d4:	0086f433          	and	s0,a3,s0
     4d8:	00f92223          	sw	a5,4(s2)
     4dc:	00000493          	li	s1,0
     4e0:	00c12083          	lw	ra,12(sp)
     4e4:	00040593          	mv	a1,s0
     4e8:	00812403          	lw	s0,8(sp)
     4ec:	00012903          	lw	s2,0(sp)
     4f0:	00048513          	mv	a0,s1
     4f4:	00412483          	lw	s1,4(sp)
     4f8:	01010113          	addi	sp,sp,16
     4fc:	00008067          	ret
     500:	03300693          	li	a3,51
     504:	08e6c263          	blt	a3,a4,588 <modf+0x110>
     508:	fff00713          	li	a4,-1
     50c:	bed78793          	addi	a5,a5,-1043
     510:	00f757b3          	srl	a5,a4,a5
     514:	00a7f733          	and	a4,a5,a0
     518:	fa0708e3          	beqz	a4,4c8 <modf+0x50>
     51c:	fff7c793          	not	a5,a5
     520:	00a7f7b3          	and	a5,a5,a0
     524:	00078813          	mv	a6,a5
     528:	00078613          	mv	a2,a5
     52c:	00058893          	mv	a7,a1
     530:	00058693          	mv	a3,a1
     534:	0200006f          	j	554 <modf+0xdc>
     538:	fff7c793          	not	a5,a5
     53c:	00b7f7b3          	and	a5,a5,a1
     540:	00000713          	li	a4,0
     544:	00070813          	mv	a6,a4
     548:	00070613          	mv	a2,a4
     54c:	00078893          	mv	a7,a5
     550:	00078693          	mv	a3,a5
     554:	01092023          	sw	a6,0(s2)
     558:	01192223          	sw	a7,4(s2)
     55c:	0f5000ef          	jal	ra,e50 <__subdf3>
     560:	00058413          	mv	s0,a1
     564:	00c12083          	lw	ra,12(sp)
     568:	00040593          	mv	a1,s0
     56c:	00812403          	lw	s0,8(sp)
     570:	00050493          	mv	s1,a0
     574:	00012903          	lw	s2,0(sp)
     578:	00048513          	mv	a0,s1
     57c:	00412483          	lw	s1,4(sp)
     580:	01010113          	addi	sp,sp,16
     584:	00008067          	ret
     588:	00a92023          	sw	a0,0(s2)
     58c:	00b92223          	sw	a1,4(s2)
     590:	070000ef          	jal	ra,600 <__fpclassifyd>
     594:	04051e63          	bnez	a0,5f0 <modf+0x178>
     598:	00048613          	mv	a2,s1
     59c:	00048513          	mv	a0,s1
     5a0:	00040693          	mv	a3,s0
     5a4:	00040593          	mv	a1,s0
     5a8:	0cc000ef          	jal	ra,674 <__adddf3>
     5ac:	00050493          	mv	s1,a0
     5b0:	00058413          	mv	s0,a1
     5b4:	00a92023          	sw	a0,0(s2)
     5b8:	00b92223          	sw	a1,4(s2)
     5bc:	f25ff06f          	j	4e0 <modf+0x68>
     5c0:	800007b7          	lui	a5,0x80000
     5c4:	00c12083          	lw	ra,12(sp)
     5c8:	00b7f7b3          	and	a5,a5,a1
     5cc:	00040593          	mv	a1,s0
     5d0:	00812403          	lw	s0,8(sp)
     5d4:	00062023          	sw	zero,0(a2)
     5d8:	00f62223          	sw	a5,4(a2)
     5dc:	00012903          	lw	s2,0(sp)
     5e0:	00048513          	mv	a0,s1
     5e4:	00412483          	lw	s1,4(sp)
     5e8:	01010113          	addi	sp,sp,16
     5ec:	00008067          	ret
     5f0:	800007b7          	lui	a5,0x80000
     5f4:	0087f433          	and	s0,a5,s0
     5f8:	00000493          	li	s1,0
     5fc:	ee5ff06f          	j	4e0 <modf+0x68>

00000600 <__fpclassifyd>:
     600:	00b56733          	or	a4,a0,a1
     604:	00050793          	mv	a5,a0
     608:	04070e63          	beqz	a4,664 <__fpclassifyd+0x64>
     60c:	80000737          	lui	a4,0x80000
     610:	04e58463          	beq	a1,a4,658 <__fpclassifyd+0x58>
     614:	fff00737          	lui	a4,0xfff00
     618:	00b70733          	add	a4,a4,a1
     61c:	7fe006b7          	lui	a3,0x7fe00
     620:	00400513          	li	a0,4
     624:	02d76863          	bltu	a4,a3,654 <__fpclassifyd+0x54>
     628:	7ff00737          	lui	a4,0x7ff00
     62c:	00b70733          	add	a4,a4,a1
     630:	02d76263          	bltu	a4,a3,654 <__fpclassifyd+0x54>
     634:	7ff00737          	lui	a4,0x7ff00
     638:	00b776b3          	and	a3,a4,a1
     63c:	00300513          	li	a0,3
     640:	00068a63          	beqz	a3,654 <__fpclassifyd+0x54>
     644:	00159593          	slli	a1,a1,0x1
     648:	0015d593          	srli	a1,a1,0x1
     64c:	00000513          	li	a0,0
     650:	00e58e63          	beq	a1,a4,66c <__fpclassifyd+0x6c>
     654:	00008067          	ret
     658:	00200513          	li	a0,2
     65c:	fc079ce3          	bnez	a5,634 <__fpclassifyd+0x34>
     660:	00008067          	ret
     664:	00200513          	li	a0,2
     668:	00008067          	ret
     66c:	0017b513          	seqz	a0,a5
     670:	00008067          	ret

00000674 <__adddf3>:
     674:	00100837          	lui	a6,0x100
     678:	fff80813          	addi	a6,a6,-1 # fffff <__DTOR_END__+0xf7feb>
     67c:	fe010113          	addi	sp,sp,-32
     680:	00b878b3          	and	a7,a6,a1
     684:	0145d713          	srli	a4,a1,0x14
     688:	01d55793          	srli	a5,a0,0x1d
     68c:	00d87833          	and	a6,a6,a3
     690:	00812c23          	sw	s0,24(sp)
     694:	7ff77413          	andi	s0,a4,2047
     698:	00389713          	slli	a4,a7,0x3
     69c:	0146d893          	srli	a7,a3,0x14
     6a0:	00381813          	slli	a6,a6,0x3
     6a4:	00912a23          	sw	s1,20(sp)
     6a8:	00e7e7b3          	or	a5,a5,a4
     6ac:	7ff8f893          	andi	a7,a7,2047
     6b0:	01d65713          	srli	a4,a2,0x1d
     6b4:	00112e23          	sw	ra,28(sp)
     6b8:	01212823          	sw	s2,16(sp)
     6bc:	01312623          	sw	s3,12(sp)
     6c0:	01f5d493          	srli	s1,a1,0x1f
     6c4:	01f6d693          	srli	a3,a3,0x1f
     6c8:	01076733          	or	a4,a4,a6
     6cc:	00351513          	slli	a0,a0,0x3
     6d0:	00361613          	slli	a2,a2,0x3
     6d4:	41140833          	sub	a6,s0,a7
     6d8:	2cd49863          	bne	s1,a3,9a8 <__adddf3+0x334>
     6dc:	13005063          	blez	a6,7fc <__adddf3+0x188>
     6e0:	04089063          	bnez	a7,720 <__adddf3+0xac>
     6e4:	00c766b3          	or	a3,a4,a2
     6e8:	70068e63          	beqz	a3,e04 <__adddf3+0x790>
     6ec:	fff80593          	addi	a1,a6,-1
     6f0:	02059063          	bnez	a1,710 <__adddf3+0x9c>
     6f4:	00c50633          	add	a2,a0,a2
     6f8:	00e78733          	add	a4,a5,a4
     6fc:	00a637b3          	sltu	a5,a2,a0
     700:	00f707b3          	add	a5,a4,a5
     704:	00060513          	mv	a0,a2
     708:	00100413          	li	s0,1
     70c:	0700006f          	j	77c <__adddf3+0x108>
     710:	7ff00693          	li	a3,2047
     714:	02d81063          	bne	a6,a3,734 <__adddf3+0xc0>
     718:	7ff00413          	li	s0,2047
     71c:	2140006f          	j	930 <__adddf3+0x2bc>
     720:	7ff00693          	li	a3,2047
     724:	20d40663          	beq	s0,a3,930 <__adddf3+0x2bc>
     728:	008006b7          	lui	a3,0x800
     72c:	00d76733          	or	a4,a4,a3
     730:	00080593          	mv	a1,a6
     734:	03800693          	li	a3,56
     738:	0ab6cc63          	blt	a3,a1,7f0 <__adddf3+0x17c>
     73c:	01f00693          	li	a3,31
     740:	06b6ce63          	blt	a3,a1,7bc <__adddf3+0x148>
     744:	02000813          	li	a6,32
     748:	40b80833          	sub	a6,a6,a1
     74c:	010716b3          	sll	a3,a4,a6
     750:	00b658b3          	srl	a7,a2,a1
     754:	01061833          	sll	a6,a2,a6
     758:	0116e6b3          	or	a3,a3,a7
     75c:	01003833          	snez	a6,a6
     760:	0106e6b3          	or	a3,a3,a6
     764:	00b755b3          	srl	a1,a4,a1
     768:	00a686b3          	add	a3,a3,a0
     76c:	00f585b3          	add	a1,a1,a5
     770:	00a6b7b3          	sltu	a5,a3,a0
     774:	00f587b3          	add	a5,a1,a5
     778:	00068513          	mv	a0,a3
     77c:	00800737          	lui	a4,0x800
     780:	00e7f733          	and	a4,a5,a4
     784:	1a070663          	beqz	a4,930 <__adddf3+0x2bc>
     788:	00140413          	addi	s0,s0,1
     78c:	7ff00713          	li	a4,2047
     790:	5ce40a63          	beq	s0,a4,d64 <__adddf3+0x6f0>
     794:	ff800737          	lui	a4,0xff800
     798:	fff70713          	addi	a4,a4,-1 # ff7fffff <_stack_start+0xff6f7fff>
     79c:	00e7f7b3          	and	a5,a5,a4
     7a0:	00155713          	srli	a4,a0,0x1
     7a4:	00157513          	andi	a0,a0,1
     7a8:	00a76733          	or	a4,a4,a0
     7ac:	01f79513          	slli	a0,a5,0x1f
     7b0:	00e56533          	or	a0,a0,a4
     7b4:	0017d793          	srli	a5,a5,0x1
     7b8:	1780006f          	j	930 <__adddf3+0x2bc>
     7bc:	fe058693          	addi	a3,a1,-32
     7c0:	02000893          	li	a7,32
     7c4:	00d756b3          	srl	a3,a4,a3
     7c8:	00000813          	li	a6,0
     7cc:	01158863          	beq	a1,a7,7dc <__adddf3+0x168>
     7d0:	04000813          	li	a6,64
     7d4:	40b80833          	sub	a6,a6,a1
     7d8:	01071833          	sll	a6,a4,a6
     7dc:	00c86833          	or	a6,a6,a2
     7e0:	01003833          	snez	a6,a6
     7e4:	0106e6b3          	or	a3,a3,a6
     7e8:	00000593          	li	a1,0
     7ec:	f7dff06f          	j	768 <__adddf3+0xf4>
     7f0:	00c766b3          	or	a3,a4,a2
     7f4:	00d036b3          	snez	a3,a3
     7f8:	ff1ff06f          	j	7e8 <__adddf3+0x174>
     7fc:	0e080263          	beqz	a6,8e0 <__adddf3+0x26c>
     800:	408885b3          	sub	a1,a7,s0
     804:	02041e63          	bnez	s0,840 <__adddf3+0x1cc>
     808:	00a7e6b3          	or	a3,a5,a0
     80c:	52068c63          	beqz	a3,d44 <__adddf3+0x6d0>
     810:	fff58693          	addi	a3,a1,-1
     814:	00069c63          	bnez	a3,82c <__adddf3+0x1b8>
     818:	00c50533          	add	a0,a0,a2
     81c:	00e78733          	add	a4,a5,a4
     820:	00c53633          	sltu	a2,a0,a2
     824:	00c707b3          	add	a5,a4,a2
     828:	ee1ff06f          	j	708 <__adddf3+0x94>
     82c:	7ff00813          	li	a6,2047
     830:	03059263          	bne	a1,a6,854 <__adddf3+0x1e0>
     834:	00070793          	mv	a5,a4
     838:	00060513          	mv	a0,a2
     83c:	eddff06f          	j	718 <__adddf3+0xa4>
     840:	7ff00693          	li	a3,2047
     844:	fed888e3          	beq	a7,a3,834 <__adddf3+0x1c0>
     848:	008006b7          	lui	a3,0x800
     84c:	00d7e7b3          	or	a5,a5,a3
     850:	00058693          	mv	a3,a1
     854:	03800593          	li	a1,56
     858:	06d5ce63          	blt	a1,a3,8d4 <__adddf3+0x260>
     85c:	01f00593          	li	a1,31
     860:	04d5c063          	blt	a1,a3,8a0 <__adddf3+0x22c>
     864:	02000813          	li	a6,32
     868:	40d80833          	sub	a6,a6,a3
     86c:	010795b3          	sll	a1,a5,a6
     870:	00d55333          	srl	t1,a0,a3
     874:	01051833          	sll	a6,a0,a6
     878:	0065e5b3          	or	a1,a1,t1
     87c:	01003833          	snez	a6,a6
     880:	0105e5b3          	or	a1,a1,a6
     884:	00d7d6b3          	srl	a3,a5,a3
     888:	00c58533          	add	a0,a1,a2
     88c:	00e686b3          	add	a3,a3,a4
     890:	00c53633          	sltu	a2,a0,a2
     894:	00c687b3          	add	a5,a3,a2
     898:	00088413          	mv	s0,a7
     89c:	ee1ff06f          	j	77c <__adddf3+0x108>
     8a0:	fe068593          	addi	a1,a3,-32 # 7fffe0 <_stack_start+0x6f7fe0>
     8a4:	02000313          	li	t1,32
     8a8:	00b7d5b3          	srl	a1,a5,a1
     8ac:	00000813          	li	a6,0
     8b0:	00668863          	beq	a3,t1,8c0 <__adddf3+0x24c>
     8b4:	04000813          	li	a6,64
     8b8:	40d80833          	sub	a6,a6,a3
     8bc:	01079833          	sll	a6,a5,a6
     8c0:	00a86833          	or	a6,a6,a0
     8c4:	01003833          	snez	a6,a6
     8c8:	0105e5b3          	or	a1,a1,a6
     8cc:	00000693          	li	a3,0
     8d0:	fb9ff06f          	j	888 <__adddf3+0x214>
     8d4:	00a7e5b3          	or	a1,a5,a0
     8d8:	00b035b3          	snez	a1,a1
     8dc:	ff1ff06f          	j	8cc <__adddf3+0x258>
     8e0:	00140693          	addi	a3,s0,1
     8e4:	7fe6f593          	andi	a1,a3,2046
     8e8:	08059863          	bnez	a1,978 <__adddf3+0x304>
     8ec:	00a7e6b3          	or	a3,a5,a0
     8f0:	06041463          	bnez	s0,958 <__adddf3+0x2e4>
     8f4:	46068063          	beqz	a3,d54 <__adddf3+0x6e0>
     8f8:	00c766b3          	or	a3,a4,a2
     8fc:	02068a63          	beqz	a3,930 <__adddf3+0x2bc>
     900:	00c50633          	add	a2,a0,a2
     904:	00e78733          	add	a4,a5,a4
     908:	00a637b3          	sltu	a5,a2,a0
     90c:	00f707b3          	add	a5,a4,a5
     910:	00800737          	lui	a4,0x800
     914:	00e7f733          	and	a4,a5,a4
     918:	00060513          	mv	a0,a2
     91c:	00070a63          	beqz	a4,930 <__adddf3+0x2bc>
     920:	ff800737          	lui	a4,0xff800
     924:	fff70713          	addi	a4,a4,-1 # ff7fffff <_stack_start+0xff6f7fff>
     928:	00e7f7b3          	and	a5,a5,a4
     92c:	00100413          	li	s0,1
     930:	00757713          	andi	a4,a0,7
     934:	42070c63          	beqz	a4,d6c <__adddf3+0x6f8>
     938:	00f57713          	andi	a4,a0,15
     93c:	00400693          	li	a3,4
     940:	42d70663          	beq	a4,a3,d6c <__adddf3+0x6f8>
     944:	00450713          	addi	a4,a0,4
     948:	00a73533          	sltu	a0,a4,a0
     94c:	00a787b3          	add	a5,a5,a0
     950:	00070513          	mv	a0,a4
     954:	4180006f          	j	d6c <__adddf3+0x6f8>
     958:	ec068ee3          	beqz	a3,834 <__adddf3+0x1c0>
     95c:	00c76733          	or	a4,a4,a2
     960:	da070ce3          	beqz	a4,718 <__adddf3+0xa4>
     964:	00000493          	li	s1,0
     968:	004007b7          	lui	a5,0x400
     96c:	00000513          	li	a0,0
     970:	7ff00413          	li	s0,2047
     974:	3f80006f          	j	d6c <__adddf3+0x6f8>
     978:	7ff00593          	li	a1,2047
     97c:	3eb68263          	beq	a3,a1,d60 <__adddf3+0x6ec>
     980:	00c50633          	add	a2,a0,a2
     984:	00a63533          	sltu	a0,a2,a0
     988:	00e78733          	add	a4,a5,a4
     98c:	00a70733          	add	a4,a4,a0
     990:	01f71513          	slli	a0,a4,0x1f
     994:	00165613          	srli	a2,a2,0x1
     998:	00c56533          	or	a0,a0,a2
     99c:	00175793          	srli	a5,a4,0x1
     9a0:	00068413          	mv	s0,a3
     9a4:	f8dff06f          	j	930 <__adddf3+0x2bc>
     9a8:	0f005c63          	blez	a6,aa0 <__adddf3+0x42c>
     9ac:	08089e63          	bnez	a7,a48 <__adddf3+0x3d4>
     9b0:	00c766b3          	or	a3,a4,a2
     9b4:	44068863          	beqz	a3,e04 <__adddf3+0x790>
     9b8:	fff80593          	addi	a1,a6,-1
     9bc:	02059063          	bnez	a1,9dc <__adddf3+0x368>
     9c0:	40c50633          	sub	a2,a0,a2
     9c4:	40e78733          	sub	a4,a5,a4
     9c8:	00c537b3          	sltu	a5,a0,a2
     9cc:	40f707b3          	sub	a5,a4,a5
     9d0:	00060513          	mv	a0,a2
     9d4:	00100413          	li	s0,1
     9d8:	0540006f          	j	a2c <__adddf3+0x3b8>
     9dc:	7ff00693          	li	a3,2047
     9e0:	d2d80ce3          	beq	a6,a3,718 <__adddf3+0xa4>
     9e4:	03800693          	li	a3,56
     9e8:	0ab6c663          	blt	a3,a1,a94 <__adddf3+0x420>
     9ec:	01f00693          	li	a3,31
     9f0:	06b6c863          	blt	a3,a1,a60 <__adddf3+0x3ec>
     9f4:	02000813          	li	a6,32
     9f8:	40b80833          	sub	a6,a6,a1
     9fc:	010716b3          	sll	a3,a4,a6
     a00:	00b658b3          	srl	a7,a2,a1
     a04:	01061833          	sll	a6,a2,a6
     a08:	0116e6b3          	or	a3,a3,a7
     a0c:	01003833          	snez	a6,a6
     a10:	0106e6b3          	or	a3,a3,a6
     a14:	00b755b3          	srl	a1,a4,a1
     a18:	40d506b3          	sub	a3,a0,a3
     a1c:	40b785b3          	sub	a1,a5,a1
     a20:	00d537b3          	sltu	a5,a0,a3
     a24:	40f587b3          	sub	a5,a1,a5
     a28:	00068513          	mv	a0,a3
     a2c:	00800937          	lui	s2,0x800
     a30:	0127f733          	and	a4,a5,s2
     a34:	ee070ee3          	beqz	a4,930 <__adddf3+0x2bc>
     a38:	fff90913          	addi	s2,s2,-1 # 7fffff <_stack_start+0x6f7fff>
     a3c:	0127f933          	and	s2,a5,s2
     a40:	00050993          	mv	s3,a0
     a44:	2140006f          	j	c58 <__adddf3+0x5e4>
     a48:	7ff00693          	li	a3,2047
     a4c:	eed402e3          	beq	s0,a3,930 <__adddf3+0x2bc>
     a50:	008006b7          	lui	a3,0x800
     a54:	00d76733          	or	a4,a4,a3
     a58:	00080593          	mv	a1,a6
     a5c:	f89ff06f          	j	9e4 <__adddf3+0x370>
     a60:	fe058693          	addi	a3,a1,-32
     a64:	02000893          	li	a7,32
     a68:	00d756b3          	srl	a3,a4,a3
     a6c:	00000813          	li	a6,0
     a70:	01158863          	beq	a1,a7,a80 <__adddf3+0x40c>
     a74:	04000813          	li	a6,64
     a78:	40b80833          	sub	a6,a6,a1
     a7c:	01071833          	sll	a6,a4,a6
     a80:	00c86833          	or	a6,a6,a2
     a84:	01003833          	snez	a6,a6
     a88:	0106e6b3          	or	a3,a3,a6
     a8c:	00000593          	li	a1,0
     a90:	f89ff06f          	j	a18 <__adddf3+0x3a4>
     a94:	00c766b3          	or	a3,a4,a2
     a98:	00d036b3          	snez	a3,a3
     a9c:	ff1ff06f          	j	a8c <__adddf3+0x418>
     aa0:	0e080863          	beqz	a6,b90 <__adddf3+0x51c>
     aa4:	40888833          	sub	a6,a7,s0
     aa8:	04041263          	bnez	s0,aec <__adddf3+0x478>
     aac:	00a7e5b3          	or	a1,a5,a0
     ab0:	34058e63          	beqz	a1,e0c <__adddf3+0x798>
     ab4:	fff80593          	addi	a1,a6,-1
     ab8:	00059e63          	bnez	a1,ad4 <__adddf3+0x460>
     abc:	40a60533          	sub	a0,a2,a0
     ac0:	40f70733          	sub	a4,a4,a5
     ac4:	00a63633          	sltu	a2,a2,a0
     ac8:	40c707b3          	sub	a5,a4,a2
     acc:	00068493          	mv	s1,a3
     ad0:	f05ff06f          	j	9d4 <__adddf3+0x360>
     ad4:	7ff00313          	li	t1,2047
     ad8:	02681463          	bne	a6,t1,b00 <__adddf3+0x48c>
     adc:	00070793          	mv	a5,a4
     ae0:	00060513          	mv	a0,a2
     ae4:	7ff00413          	li	s0,2047
     ae8:	0d00006f          	j	bb8 <__adddf3+0x544>
     aec:	7ff00593          	li	a1,2047
     af0:	feb886e3          	beq	a7,a1,adc <__adddf3+0x468>
     af4:	008005b7          	lui	a1,0x800
     af8:	00b7e7b3          	or	a5,a5,a1
     afc:	00080593          	mv	a1,a6
     b00:	03800813          	li	a6,56
     b04:	08b84063          	blt	a6,a1,b84 <__adddf3+0x510>
     b08:	01f00813          	li	a6,31
     b0c:	04b84263          	blt	a6,a1,b50 <__adddf3+0x4dc>
     b10:	02000313          	li	t1,32
     b14:	40b30333          	sub	t1,t1,a1
     b18:	00b55e33          	srl	t3,a0,a1
     b1c:	00679833          	sll	a6,a5,t1
     b20:	00651333          	sll	t1,a0,t1
     b24:	01c86833          	or	a6,a6,t3
     b28:	00603333          	snez	t1,t1
     b2c:	00686533          	or	a0,a6,t1
     b30:	00b7d5b3          	srl	a1,a5,a1
     b34:	40a60533          	sub	a0,a2,a0
     b38:	40b705b3          	sub	a1,a4,a1
     b3c:	00a63633          	sltu	a2,a2,a0
     b40:	40c587b3          	sub	a5,a1,a2
     b44:	00088413          	mv	s0,a7
     b48:	00068493          	mv	s1,a3
     b4c:	ee1ff06f          	j	a2c <__adddf3+0x3b8>
     b50:	fe058813          	addi	a6,a1,-32 # 7fffe0 <_stack_start+0x6f7fe0>
     b54:	02000e13          	li	t3,32
     b58:	0107d833          	srl	a6,a5,a6
     b5c:	00000313          	li	t1,0
     b60:	01c58863          	beq	a1,t3,b70 <__adddf3+0x4fc>
     b64:	04000313          	li	t1,64
     b68:	40b30333          	sub	t1,t1,a1
     b6c:	00679333          	sll	t1,a5,t1
     b70:	00a36333          	or	t1,t1,a0
     b74:	00603333          	snez	t1,t1
     b78:	00686533          	or	a0,a6,t1
     b7c:	00000593          	li	a1,0
     b80:	fb5ff06f          	j	b34 <__adddf3+0x4c0>
     b84:	00a7e533          	or	a0,a5,a0
     b88:	00a03533          	snez	a0,a0
     b8c:	ff1ff06f          	j	b7c <__adddf3+0x508>
     b90:	00140593          	addi	a1,s0,1
     b94:	7fe5f593          	andi	a1,a1,2046
     b98:	08059863          	bnez	a1,c28 <__adddf3+0x5b4>
     b9c:	00a7e833          	or	a6,a5,a0
     ba0:	00c765b3          	or	a1,a4,a2
     ba4:	06041263          	bnez	s0,c08 <__adddf3+0x594>
     ba8:	00081c63          	bnez	a6,bc0 <__adddf3+0x54c>
     bac:	26058863          	beqz	a1,e1c <__adddf3+0x7a8>
     bb0:	00070793          	mv	a5,a4
     bb4:	00060513          	mv	a0,a2
     bb8:	00068493          	mv	s1,a3
     bbc:	d75ff06f          	j	930 <__adddf3+0x2bc>
     bc0:	d60588e3          	beqz	a1,930 <__adddf3+0x2bc>
     bc4:	40c50833          	sub	a6,a0,a2
     bc8:	010538b3          	sltu	a7,a0,a6
     bcc:	40e785b3          	sub	a1,a5,a4
     bd0:	411585b3          	sub	a1,a1,a7
     bd4:	008008b7          	lui	a7,0x800
     bd8:	0115f8b3          	and	a7,a1,a7
     bdc:	00088c63          	beqz	a7,bf4 <__adddf3+0x580>
     be0:	40a60533          	sub	a0,a2,a0
     be4:	40f70733          	sub	a4,a4,a5
     be8:	00a63633          	sltu	a2,a2,a0
     bec:	40c707b3          	sub	a5,a4,a2
     bf0:	fc9ff06f          	j	bb8 <__adddf3+0x544>
     bf4:	00b86533          	or	a0,a6,a1
     bf8:	22050a63          	beqz	a0,e2c <__adddf3+0x7b8>
     bfc:	00058793          	mv	a5,a1
     c00:	00080513          	mv	a0,a6
     c04:	d2dff06f          	j	930 <__adddf3+0x2bc>
     c08:	00081c63          	bnez	a6,c20 <__adddf3+0x5ac>
     c0c:	22058463          	beqz	a1,e34 <__adddf3+0x7c0>
     c10:	00070793          	mv	a5,a4
     c14:	00060513          	mv	a0,a2
     c18:	00068493          	mv	s1,a3
     c1c:	afdff06f          	j	718 <__adddf3+0xa4>
     c20:	ae058ce3          	beqz	a1,718 <__adddf3+0xa4>
     c24:	d41ff06f          	j	964 <__adddf3+0x2f0>
     c28:	40c509b3          	sub	s3,a0,a2
     c2c:	013535b3          	sltu	a1,a0,s3
     c30:	40e78933          	sub	s2,a5,a4
     c34:	40b90933          	sub	s2,s2,a1
     c38:	008005b7          	lui	a1,0x800
     c3c:	00b975b3          	and	a1,s2,a1
     c40:	08058463          	beqz	a1,cc8 <__adddf3+0x654>
     c44:	40a609b3          	sub	s3,a2,a0
     c48:	40f70933          	sub	s2,a4,a5
     c4c:	01363633          	sltu	a2,a2,s3
     c50:	40c90933          	sub	s2,s2,a2
     c54:	00068493          	mv	s1,a3
     c58:	08090263          	beqz	s2,cdc <__adddf3+0x668>
     c5c:	00090513          	mv	a0,s2
     c60:	1e1000ef          	jal	ra,1640 <__clzsi2>
     c64:	ff850713          	addi	a4,a0,-8
     c68:	01f00793          	li	a5,31
     c6c:	08e7c063          	blt	a5,a4,cec <__adddf3+0x678>
     c70:	02000793          	li	a5,32
     c74:	40e787b3          	sub	a5,a5,a4
     c78:	00e91933          	sll	s2,s2,a4
     c7c:	00f9d7b3          	srl	a5,s3,a5
     c80:	0127e7b3          	or	a5,a5,s2
     c84:	00e99533          	sll	a0,s3,a4
     c88:	0a874463          	blt	a4,s0,d30 <__adddf3+0x6bc>
     c8c:	40870733          	sub	a4,a4,s0
     c90:	00170613          	addi	a2,a4,1
     c94:	01f00693          	li	a3,31
     c98:	06c6c263          	blt	a3,a2,cfc <__adddf3+0x688>
     c9c:	02000713          	li	a4,32
     ca0:	40c70733          	sub	a4,a4,a2
     ca4:	00e796b3          	sll	a3,a5,a4
     ca8:	00c555b3          	srl	a1,a0,a2
     cac:	00e51733          	sll	a4,a0,a4
     cb0:	00b6e6b3          	or	a3,a3,a1
     cb4:	00e03733          	snez	a4,a4
     cb8:	00e6e533          	or	a0,a3,a4
     cbc:	00c7d7b3          	srl	a5,a5,a2
     cc0:	00000413          	li	s0,0
     cc4:	c6dff06f          	j	930 <__adddf3+0x2bc>
     cc8:	0129e533          	or	a0,s3,s2
     ccc:	f80516e3          	bnez	a0,c58 <__adddf3+0x5e4>
     cd0:	00000793          	li	a5,0
     cd4:	00000413          	li	s0,0
     cd8:	14c0006f          	j	e24 <__adddf3+0x7b0>
     cdc:	00098513          	mv	a0,s3
     ce0:	161000ef          	jal	ra,1640 <__clzsi2>
     ce4:	02050513          	addi	a0,a0,32
     ce8:	f7dff06f          	j	c64 <__adddf3+0x5f0>
     cec:	fd850793          	addi	a5,a0,-40
     cf0:	00f997b3          	sll	a5,s3,a5
     cf4:	00000513          	li	a0,0
     cf8:	f91ff06f          	j	c88 <__adddf3+0x614>
     cfc:	fe170713          	addi	a4,a4,-31
     d00:	02000593          	li	a1,32
     d04:	00e7d733          	srl	a4,a5,a4
     d08:	00000693          	li	a3,0
     d0c:	00b60863          	beq	a2,a1,d1c <__adddf3+0x6a8>
     d10:	04000693          	li	a3,64
     d14:	40c686b3          	sub	a3,a3,a2
     d18:	00d796b3          	sll	a3,a5,a3
     d1c:	00d566b3          	or	a3,a0,a3
     d20:	00d036b3          	snez	a3,a3
     d24:	00d76533          	or	a0,a4,a3
     d28:	00000793          	li	a5,0
     d2c:	f95ff06f          	j	cc0 <__adddf3+0x64c>
     d30:	40e40433          	sub	s0,s0,a4
     d34:	ff800737          	lui	a4,0xff800
     d38:	fff70713          	addi	a4,a4,-1 # ff7fffff <_stack_start+0xff6f7fff>
     d3c:	00e7f7b3          	and	a5,a5,a4
     d40:	bf1ff06f          	j	930 <__adddf3+0x2bc>
     d44:	00070793          	mv	a5,a4
     d48:	00060513          	mv	a0,a2
     d4c:	00058413          	mv	s0,a1
     d50:	be1ff06f          	j	930 <__adddf3+0x2bc>
     d54:	00070793          	mv	a5,a4
     d58:	00060513          	mv	a0,a2
     d5c:	bd5ff06f          	j	930 <__adddf3+0x2bc>
     d60:	7ff00413          	li	s0,2047
     d64:	00000793          	li	a5,0
     d68:	00000513          	li	a0,0
     d6c:	00800737          	lui	a4,0x800
     d70:	00e7f733          	and	a4,a5,a4
     d74:	00070e63          	beqz	a4,d90 <__adddf3+0x71c>
     d78:	00140413          	addi	s0,s0,1
     d7c:	7ff00713          	li	a4,2047
     d80:	0ce40263          	beq	s0,a4,e44 <__adddf3+0x7d0>
     d84:	ff800737          	lui	a4,0xff800
     d88:	fff70713          	addi	a4,a4,-1 # ff7fffff <_stack_start+0xff6f7fff>
     d8c:	00e7f7b3          	and	a5,a5,a4
     d90:	01d79693          	slli	a3,a5,0x1d
     d94:	00355513          	srli	a0,a0,0x3
     d98:	7ff00713          	li	a4,2047
     d9c:	00a6e6b3          	or	a3,a3,a0
     da0:	0037d793          	srli	a5,a5,0x3
     da4:	00e41e63          	bne	s0,a4,dc0 <__adddf3+0x74c>
     da8:	00f6e6b3          	or	a3,a3,a5
     dac:	00000793          	li	a5,0
     db0:	00068863          	beqz	a3,dc0 <__adddf3+0x74c>
     db4:	000807b7          	lui	a5,0x80
     db8:	00000693          	li	a3,0
     dbc:	00000493          	li	s1,0
     dc0:	01441713          	slli	a4,s0,0x14
     dc4:	7ff00637          	lui	a2,0x7ff00
     dc8:	00c79793          	slli	a5,a5,0xc
     dcc:	01c12083          	lw	ra,28(sp)
     dd0:	01812403          	lw	s0,24(sp)
     dd4:	00c77733          	and	a4,a4,a2
     dd8:	00c7d793          	srli	a5,a5,0xc
     ddc:	01f49493          	slli	s1,s1,0x1f
     de0:	00f767b3          	or	a5,a4,a5
     de4:	0097e733          	or	a4,a5,s1
     de8:	01012903          	lw	s2,16(sp)
     dec:	01412483          	lw	s1,20(sp)
     df0:	00c12983          	lw	s3,12(sp)
     df4:	00068513          	mv	a0,a3
     df8:	00070593          	mv	a1,a4
     dfc:	02010113          	addi	sp,sp,32
     e00:	00008067          	ret
     e04:	00080413          	mv	s0,a6
     e08:	b29ff06f          	j	930 <__adddf3+0x2bc>
     e0c:	00070793          	mv	a5,a4
     e10:	00060513          	mv	a0,a2
     e14:	00080413          	mv	s0,a6
     e18:	da1ff06f          	j	bb8 <__adddf3+0x544>
     e1c:	00000793          	li	a5,0
     e20:	00000513          	li	a0,0
     e24:	00000493          	li	s1,0
     e28:	f45ff06f          	j	d6c <__adddf3+0x6f8>
     e2c:	00000793          	li	a5,0
     e30:	ff5ff06f          	j	e24 <__adddf3+0x7b0>
     e34:	00000513          	li	a0,0
     e38:	00000493          	li	s1,0
     e3c:	004007b7          	lui	a5,0x400
     e40:	b31ff06f          	j	970 <__adddf3+0x2fc>
     e44:	00000793          	li	a5,0
     e48:	00000513          	li	a0,0
     e4c:	f45ff06f          	j	d90 <__adddf3+0x71c>

00000e50 <__subdf3>:
     e50:	00100837          	lui	a6,0x100
     e54:	fff80813          	addi	a6,a6,-1 # fffff <__DTOR_END__+0xf7feb>
     e58:	fe010113          	addi	sp,sp,-32
     e5c:	00b878b3          	and	a7,a6,a1
     e60:	0145d713          	srli	a4,a1,0x14
     e64:	01d55793          	srli	a5,a0,0x1d
     e68:	00d87833          	and	a6,a6,a3
     e6c:	00812c23          	sw	s0,24(sp)
     e70:	7ff77413          	andi	s0,a4,2047
     e74:	00389713          	slli	a4,a7,0x3
     e78:	0146d893          	srli	a7,a3,0x14
     e7c:	00912a23          	sw	s1,20(sp)
     e80:	00e7e7b3          	or	a5,a5,a4
     e84:	01f5d493          	srli	s1,a1,0x1f
     e88:	01d65713          	srli	a4,a2,0x1d
     e8c:	00381813          	slli	a6,a6,0x3
     e90:	00112e23          	sw	ra,28(sp)
     e94:	01212823          	sw	s2,16(sp)
     e98:	01312623          	sw	s3,12(sp)
     e9c:	7ff8f893          	andi	a7,a7,2047
     ea0:	7ff00593          	li	a1,2047
     ea4:	00351513          	slli	a0,a0,0x3
     ea8:	01f6d693          	srli	a3,a3,0x1f
     eac:	01076733          	or	a4,a4,a6
     eb0:	00361613          	slli	a2,a2,0x3
     eb4:	00b89663          	bne	a7,a1,ec0 <__subdf3+0x70>
     eb8:	00c765b3          	or	a1,a4,a2
     ebc:	00059463          	bnez	a1,ec4 <__subdf3+0x74>
     ec0:	0016c693          	xori	a3,a3,1
     ec4:	41140833          	sub	a6,s0,a7
     ec8:	2c969863          	bne	a3,s1,1198 <_min_stack+0x198>
     ecc:	13005063          	blez	a6,fec <SPECTRE_ARRAY_SIZE+0x4c>
     ed0:	04089063          	bnez	a7,f10 <__subdf3+0xc0>
     ed4:	00c766b3          	or	a3,a4,a2
     ed8:	70068e63          	beqz	a3,15f4 <_min_stack+0x5f4>
     edc:	fff80593          	addi	a1,a6,-1
     ee0:	02059063          	bnez	a1,f00 <__subdf3+0xb0>
     ee4:	00c50633          	add	a2,a0,a2
     ee8:	00e78733          	add	a4,a5,a4
     eec:	00a637b3          	sltu	a5,a2,a0
     ef0:	00f707b3          	add	a5,a4,a5
     ef4:	00060513          	mv	a0,a2
     ef8:	00100413          	li	s0,1
     efc:	0700006f          	j	f6c <__subdf3+0x11c>
     f00:	7ff00693          	li	a3,2047
     f04:	02d81063          	bne	a6,a3,f24 <__subdf3+0xd4>
     f08:	7ff00413          	li	s0,2047
     f0c:	2140006f          	j	1120 <_min_stack+0x120>
     f10:	7ff00693          	li	a3,2047
     f14:	20d40663          	beq	s0,a3,1120 <_min_stack+0x120>
     f18:	008006b7          	lui	a3,0x800
     f1c:	00d76733          	or	a4,a4,a3
     f20:	00080593          	mv	a1,a6
     f24:	03800693          	li	a3,56
     f28:	0ab6cc63          	blt	a3,a1,fe0 <SPECTRE_ARRAY_SIZE+0x40>
     f2c:	01f00693          	li	a3,31
     f30:	06b6ce63          	blt	a3,a1,fac <SPECTRE_ARRAY_SIZE+0xc>
     f34:	02000813          	li	a6,32
     f38:	40b80833          	sub	a6,a6,a1
     f3c:	010716b3          	sll	a3,a4,a6
     f40:	00b658b3          	srl	a7,a2,a1
     f44:	01061833          	sll	a6,a2,a6
     f48:	0116e6b3          	or	a3,a3,a7
     f4c:	01003833          	snez	a6,a6
     f50:	0106e6b3          	or	a3,a3,a6
     f54:	00b755b3          	srl	a1,a4,a1
     f58:	00a686b3          	add	a3,a3,a0
     f5c:	00f585b3          	add	a1,a1,a5
     f60:	00a6b7b3          	sltu	a5,a3,a0
     f64:	00f587b3          	add	a5,a1,a5
     f68:	00068513          	mv	a0,a3
     f6c:	00800737          	lui	a4,0x800
     f70:	00e7f733          	and	a4,a5,a4
     f74:	1a070663          	beqz	a4,1120 <_min_stack+0x120>
     f78:	00140413          	addi	s0,s0,1
     f7c:	7ff00713          	li	a4,2047
     f80:	5ce40a63          	beq	s0,a4,1554 <_min_stack+0x554>
     f84:	ff800737          	lui	a4,0xff800
     f88:	fff70713          	addi	a4,a4,-1 # ff7fffff <_stack_start+0xff6f7fff>
     f8c:	00e7f7b3          	and	a5,a5,a4
     f90:	00155713          	srli	a4,a0,0x1
     f94:	00157513          	andi	a0,a0,1
     f98:	00a76733          	or	a4,a4,a0
     f9c:	01f79513          	slli	a0,a5,0x1f
     fa0:	00e56533          	or	a0,a0,a4
     fa4:	0017d793          	srli	a5,a5,0x1
     fa8:	1780006f          	j	1120 <_min_stack+0x120>
     fac:	fe058693          	addi	a3,a1,-32 # 7fffe0 <_stack_start+0x6f7fe0>
     fb0:	02000893          	li	a7,32
     fb4:	00d756b3          	srl	a3,a4,a3
     fb8:	00000813          	li	a6,0
     fbc:	01158863          	beq	a1,a7,fcc <SPECTRE_ARRAY_SIZE+0x2c>
     fc0:	04000813          	li	a6,64
     fc4:	40b80833          	sub	a6,a6,a1
     fc8:	01071833          	sll	a6,a4,a6
     fcc:	00c86833          	or	a6,a6,a2
     fd0:	01003833          	snez	a6,a6
     fd4:	0106e6b3          	or	a3,a3,a6
     fd8:	00000593          	li	a1,0
     fdc:	f7dff06f          	j	f58 <__subdf3+0x108>
     fe0:	00c766b3          	or	a3,a4,a2
     fe4:	00d036b3          	snez	a3,a3
     fe8:	ff1ff06f          	j	fd8 <SPECTRE_ARRAY_SIZE+0x38>
     fec:	0e080263          	beqz	a6,10d0 <_min_stack+0xd0>
     ff0:	408885b3          	sub	a1,a7,s0
     ff4:	02041e63          	bnez	s0,1030 <_min_stack+0x30>
     ff8:	00a7e6b3          	or	a3,a5,a0
     ffc:	52068c63          	beqz	a3,1534 <_min_stack+0x534>
    1000:	fff58693          	addi	a3,a1,-1
    1004:	00069c63          	bnez	a3,101c <_min_stack+0x1c>
    1008:	00c50533          	add	a0,a0,a2
    100c:	00e78733          	add	a4,a5,a4
    1010:	00c53633          	sltu	a2,a0,a2
    1014:	00c707b3          	add	a5,a4,a2
    1018:	ee1ff06f          	j	ef8 <__subdf3+0xa8>
    101c:	7ff00813          	li	a6,2047
    1020:	03059263          	bne	a1,a6,1044 <_min_stack+0x44>
    1024:	00070793          	mv	a5,a4
    1028:	00060513          	mv	a0,a2
    102c:	eddff06f          	j	f08 <__subdf3+0xb8>
    1030:	7ff00693          	li	a3,2047
    1034:	fed888e3          	beq	a7,a3,1024 <_min_stack+0x24>
    1038:	008006b7          	lui	a3,0x800
    103c:	00d7e7b3          	or	a5,a5,a3
    1040:	00058693          	mv	a3,a1
    1044:	03800593          	li	a1,56
    1048:	06d5ce63          	blt	a1,a3,10c4 <_min_stack+0xc4>
    104c:	01f00593          	li	a1,31
    1050:	04d5c063          	blt	a1,a3,1090 <_min_stack+0x90>
    1054:	02000813          	li	a6,32
    1058:	40d80833          	sub	a6,a6,a3
    105c:	010795b3          	sll	a1,a5,a6
    1060:	00d55333          	srl	t1,a0,a3
    1064:	01051833          	sll	a6,a0,a6
    1068:	0065e5b3          	or	a1,a1,t1
    106c:	01003833          	snez	a6,a6
    1070:	0105e5b3          	or	a1,a1,a6
    1074:	00d7d6b3          	srl	a3,a5,a3
    1078:	00c58533          	add	a0,a1,a2
    107c:	00e686b3          	add	a3,a3,a4
    1080:	00c53633          	sltu	a2,a0,a2
    1084:	00c687b3          	add	a5,a3,a2
    1088:	00088413          	mv	s0,a7
    108c:	ee1ff06f          	j	f6c <__subdf3+0x11c>
    1090:	fe068593          	addi	a1,a3,-32 # 7fffe0 <_stack_start+0x6f7fe0>
    1094:	02000313          	li	t1,32
    1098:	00b7d5b3          	srl	a1,a5,a1
    109c:	00000813          	li	a6,0
    10a0:	00668863          	beq	a3,t1,10b0 <_min_stack+0xb0>
    10a4:	04000813          	li	a6,64
    10a8:	40d80833          	sub	a6,a6,a3
    10ac:	01079833          	sll	a6,a5,a6
    10b0:	00a86833          	or	a6,a6,a0
    10b4:	01003833          	snez	a6,a6
    10b8:	0105e5b3          	or	a1,a1,a6
    10bc:	00000693          	li	a3,0
    10c0:	fb9ff06f          	j	1078 <_min_stack+0x78>
    10c4:	00a7e5b3          	or	a1,a5,a0
    10c8:	00b035b3          	snez	a1,a1
    10cc:	ff1ff06f          	j	10bc <_min_stack+0xbc>
    10d0:	00140693          	addi	a3,s0,1
    10d4:	7fe6f593          	andi	a1,a3,2046
    10d8:	08059863          	bnez	a1,1168 <_min_stack+0x168>
    10dc:	00a7e6b3          	or	a3,a5,a0
    10e0:	06041463          	bnez	s0,1148 <_min_stack+0x148>
    10e4:	46068063          	beqz	a3,1544 <_min_stack+0x544>
    10e8:	00c766b3          	or	a3,a4,a2
    10ec:	02068a63          	beqz	a3,1120 <_min_stack+0x120>
    10f0:	00c50633          	add	a2,a0,a2
    10f4:	00e78733          	add	a4,a5,a4
    10f8:	00a637b3          	sltu	a5,a2,a0
    10fc:	00f707b3          	add	a5,a4,a5
    1100:	00800737          	lui	a4,0x800
    1104:	00e7f733          	and	a4,a5,a4
    1108:	00060513          	mv	a0,a2
    110c:	00070a63          	beqz	a4,1120 <_min_stack+0x120>
    1110:	ff800737          	lui	a4,0xff800
    1114:	fff70713          	addi	a4,a4,-1 # ff7fffff <_stack_start+0xff6f7fff>
    1118:	00e7f7b3          	and	a5,a5,a4
    111c:	00100413          	li	s0,1
    1120:	00757713          	andi	a4,a0,7
    1124:	42070c63          	beqz	a4,155c <_min_stack+0x55c>
    1128:	00f57713          	andi	a4,a0,15
    112c:	00400693          	li	a3,4
    1130:	42d70663          	beq	a4,a3,155c <_min_stack+0x55c>
    1134:	00450713          	addi	a4,a0,4
    1138:	00a73533          	sltu	a0,a4,a0
    113c:	00a787b3          	add	a5,a5,a0
    1140:	00070513          	mv	a0,a4
    1144:	4180006f          	j	155c <_min_stack+0x55c>
    1148:	ec068ee3          	beqz	a3,1024 <_min_stack+0x24>
    114c:	00c76733          	or	a4,a4,a2
    1150:	da070ce3          	beqz	a4,f08 <__subdf3+0xb8>
    1154:	00000493          	li	s1,0
    1158:	004007b7          	lui	a5,0x400
    115c:	00000513          	li	a0,0
    1160:	7ff00413          	li	s0,2047
    1164:	3f80006f          	j	155c <_min_stack+0x55c>
    1168:	7ff00593          	li	a1,2047
    116c:	3eb68263          	beq	a3,a1,1550 <_min_stack+0x550>
    1170:	00c50633          	add	a2,a0,a2
    1174:	00a63533          	sltu	a0,a2,a0
    1178:	00e78733          	add	a4,a5,a4
    117c:	00a70733          	add	a4,a4,a0
    1180:	01f71513          	slli	a0,a4,0x1f
    1184:	00165613          	srli	a2,a2,0x1
    1188:	00c56533          	or	a0,a0,a2
    118c:	00175793          	srli	a5,a4,0x1
    1190:	00068413          	mv	s0,a3
    1194:	f8dff06f          	j	1120 <_min_stack+0x120>
    1198:	0f005c63          	blez	a6,1290 <_min_stack+0x290>
    119c:	08089e63          	bnez	a7,1238 <_min_stack+0x238>
    11a0:	00c766b3          	or	a3,a4,a2
    11a4:	44068863          	beqz	a3,15f4 <_min_stack+0x5f4>
    11a8:	fff80593          	addi	a1,a6,-1
    11ac:	02059063          	bnez	a1,11cc <_min_stack+0x1cc>
    11b0:	40c50633          	sub	a2,a0,a2
    11b4:	40e78733          	sub	a4,a5,a4
    11b8:	00c537b3          	sltu	a5,a0,a2
    11bc:	40f707b3          	sub	a5,a4,a5
    11c0:	00060513          	mv	a0,a2
    11c4:	00100413          	li	s0,1
    11c8:	0540006f          	j	121c <_min_stack+0x21c>
    11cc:	7ff00693          	li	a3,2047
    11d0:	d2d80ce3          	beq	a6,a3,f08 <__subdf3+0xb8>
    11d4:	03800693          	li	a3,56
    11d8:	0ab6c663          	blt	a3,a1,1284 <_min_stack+0x284>
    11dc:	01f00693          	li	a3,31
    11e0:	06b6c863          	blt	a3,a1,1250 <_min_stack+0x250>
    11e4:	02000813          	li	a6,32
    11e8:	40b80833          	sub	a6,a6,a1
    11ec:	010716b3          	sll	a3,a4,a6
    11f0:	00b658b3          	srl	a7,a2,a1
    11f4:	01061833          	sll	a6,a2,a6
    11f8:	0116e6b3          	or	a3,a3,a7
    11fc:	01003833          	snez	a6,a6
    1200:	0106e6b3          	or	a3,a3,a6
    1204:	00b755b3          	srl	a1,a4,a1
    1208:	40d506b3          	sub	a3,a0,a3
    120c:	40b785b3          	sub	a1,a5,a1
    1210:	00d537b3          	sltu	a5,a0,a3
    1214:	40f587b3          	sub	a5,a1,a5
    1218:	00068513          	mv	a0,a3
    121c:	00800937          	lui	s2,0x800
    1220:	0127f733          	and	a4,a5,s2
    1224:	ee070ee3          	beqz	a4,1120 <_min_stack+0x120>
    1228:	fff90913          	addi	s2,s2,-1 # 7fffff <_stack_start+0x6f7fff>
    122c:	0127f933          	and	s2,a5,s2
    1230:	00050993          	mv	s3,a0
    1234:	2140006f          	j	1448 <_min_stack+0x448>
    1238:	7ff00693          	li	a3,2047
    123c:	eed402e3          	beq	s0,a3,1120 <_min_stack+0x120>
    1240:	008006b7          	lui	a3,0x800
    1244:	00d76733          	or	a4,a4,a3
    1248:	00080593          	mv	a1,a6
    124c:	f89ff06f          	j	11d4 <_min_stack+0x1d4>
    1250:	fe058693          	addi	a3,a1,-32
    1254:	02000893          	li	a7,32
    1258:	00d756b3          	srl	a3,a4,a3
    125c:	00000813          	li	a6,0
    1260:	01158863          	beq	a1,a7,1270 <_min_stack+0x270>
    1264:	04000813          	li	a6,64
    1268:	40b80833          	sub	a6,a6,a1
    126c:	01071833          	sll	a6,a4,a6
    1270:	00c86833          	or	a6,a6,a2
    1274:	01003833          	snez	a6,a6
    1278:	0106e6b3          	or	a3,a3,a6
    127c:	00000593          	li	a1,0
    1280:	f89ff06f          	j	1208 <_min_stack+0x208>
    1284:	00c766b3          	or	a3,a4,a2
    1288:	00d036b3          	snez	a3,a3
    128c:	ff1ff06f          	j	127c <_min_stack+0x27c>
    1290:	0e080863          	beqz	a6,1380 <_min_stack+0x380>
    1294:	40888833          	sub	a6,a7,s0
    1298:	04041263          	bnez	s0,12dc <_min_stack+0x2dc>
    129c:	00a7e5b3          	or	a1,a5,a0
    12a0:	34058e63          	beqz	a1,15fc <_min_stack+0x5fc>
    12a4:	fff80593          	addi	a1,a6,-1
    12a8:	00059e63          	bnez	a1,12c4 <_min_stack+0x2c4>
    12ac:	40a60533          	sub	a0,a2,a0
    12b0:	40f70733          	sub	a4,a4,a5
    12b4:	00a63633          	sltu	a2,a2,a0
    12b8:	40c707b3          	sub	a5,a4,a2
    12bc:	00068493          	mv	s1,a3
    12c0:	f05ff06f          	j	11c4 <_min_stack+0x1c4>
    12c4:	7ff00313          	li	t1,2047
    12c8:	02681463          	bne	a6,t1,12f0 <_min_stack+0x2f0>
    12cc:	00070793          	mv	a5,a4
    12d0:	00060513          	mv	a0,a2
    12d4:	7ff00413          	li	s0,2047
    12d8:	0d00006f          	j	13a8 <_min_stack+0x3a8>
    12dc:	7ff00593          	li	a1,2047
    12e0:	feb886e3          	beq	a7,a1,12cc <_min_stack+0x2cc>
    12e4:	008005b7          	lui	a1,0x800
    12e8:	00b7e7b3          	or	a5,a5,a1
    12ec:	00080593          	mv	a1,a6
    12f0:	03800813          	li	a6,56
    12f4:	08b84063          	blt	a6,a1,1374 <_min_stack+0x374>
    12f8:	01f00813          	li	a6,31
    12fc:	04b84263          	blt	a6,a1,1340 <_min_stack+0x340>
    1300:	02000313          	li	t1,32
    1304:	40b30333          	sub	t1,t1,a1
    1308:	00b55e33          	srl	t3,a0,a1
    130c:	00679833          	sll	a6,a5,t1
    1310:	00651333          	sll	t1,a0,t1
    1314:	01c86833          	or	a6,a6,t3
    1318:	00603333          	snez	t1,t1
    131c:	00686533          	or	a0,a6,t1
    1320:	00b7d5b3          	srl	a1,a5,a1
    1324:	40a60533          	sub	a0,a2,a0
    1328:	40b705b3          	sub	a1,a4,a1
    132c:	00a63633          	sltu	a2,a2,a0
    1330:	40c587b3          	sub	a5,a1,a2
    1334:	00088413          	mv	s0,a7
    1338:	00068493          	mv	s1,a3
    133c:	ee1ff06f          	j	121c <_min_stack+0x21c>
    1340:	fe058813          	addi	a6,a1,-32 # 7fffe0 <_stack_start+0x6f7fe0>
    1344:	02000e13          	li	t3,32
    1348:	0107d833          	srl	a6,a5,a6
    134c:	00000313          	li	t1,0
    1350:	01c58863          	beq	a1,t3,1360 <_min_stack+0x360>
    1354:	04000313          	li	t1,64
    1358:	40b30333          	sub	t1,t1,a1
    135c:	00679333          	sll	t1,a5,t1
    1360:	00a36333          	or	t1,t1,a0
    1364:	00603333          	snez	t1,t1
    1368:	00686533          	or	a0,a6,t1
    136c:	00000593          	li	a1,0
    1370:	fb5ff06f          	j	1324 <_min_stack+0x324>
    1374:	00a7e533          	or	a0,a5,a0
    1378:	00a03533          	snez	a0,a0
    137c:	ff1ff06f          	j	136c <_min_stack+0x36c>
    1380:	00140593          	addi	a1,s0,1
    1384:	7fe5f593          	andi	a1,a1,2046
    1388:	08059863          	bnez	a1,1418 <_min_stack+0x418>
    138c:	00c765b3          	or	a1,a4,a2
    1390:	00a7e833          	or	a6,a5,a0
    1394:	06041263          	bnez	s0,13f8 <_min_stack+0x3f8>
    1398:	00081c63          	bnez	a6,13b0 <_min_stack+0x3b0>
    139c:	26058863          	beqz	a1,160c <_min_stack+0x60c>
    13a0:	00070793          	mv	a5,a4
    13a4:	00060513          	mv	a0,a2
    13a8:	00068493          	mv	s1,a3
    13ac:	d75ff06f          	j	1120 <_min_stack+0x120>
    13b0:	d60588e3          	beqz	a1,1120 <_min_stack+0x120>
    13b4:	40c50833          	sub	a6,a0,a2
    13b8:	010538b3          	sltu	a7,a0,a6
    13bc:	40e785b3          	sub	a1,a5,a4
    13c0:	411585b3          	sub	a1,a1,a7
    13c4:	008008b7          	lui	a7,0x800
    13c8:	0115f8b3          	and	a7,a1,a7
    13cc:	00088c63          	beqz	a7,13e4 <_min_stack+0x3e4>
    13d0:	40a60533          	sub	a0,a2,a0
    13d4:	40f70733          	sub	a4,a4,a5
    13d8:	00a63633          	sltu	a2,a2,a0
    13dc:	40c707b3          	sub	a5,a4,a2
    13e0:	fc9ff06f          	j	13a8 <_min_stack+0x3a8>
    13e4:	00b86533          	or	a0,a6,a1
    13e8:	22050a63          	beqz	a0,161c <_min_stack+0x61c>
    13ec:	00058793          	mv	a5,a1
    13f0:	00080513          	mv	a0,a6
    13f4:	d2dff06f          	j	1120 <_min_stack+0x120>
    13f8:	00081c63          	bnez	a6,1410 <_min_stack+0x410>
    13fc:	22058463          	beqz	a1,1624 <_min_stack+0x624>
    1400:	00070793          	mv	a5,a4
    1404:	00060513          	mv	a0,a2
    1408:	00068493          	mv	s1,a3
    140c:	afdff06f          	j	f08 <__subdf3+0xb8>
    1410:	ae058ce3          	beqz	a1,f08 <__subdf3+0xb8>
    1414:	d41ff06f          	j	1154 <_min_stack+0x154>
    1418:	40c509b3          	sub	s3,a0,a2
    141c:	013535b3          	sltu	a1,a0,s3
    1420:	40e78933          	sub	s2,a5,a4
    1424:	40b90933          	sub	s2,s2,a1
    1428:	008005b7          	lui	a1,0x800
    142c:	00b975b3          	and	a1,s2,a1
    1430:	08058463          	beqz	a1,14b8 <_min_stack+0x4b8>
    1434:	40a609b3          	sub	s3,a2,a0
    1438:	40f70933          	sub	s2,a4,a5
    143c:	01363633          	sltu	a2,a2,s3
    1440:	40c90933          	sub	s2,s2,a2
    1444:	00068493          	mv	s1,a3
    1448:	08090263          	beqz	s2,14cc <_min_stack+0x4cc>
    144c:	00090513          	mv	a0,s2
    1450:	1f0000ef          	jal	ra,1640 <__clzsi2>
    1454:	ff850713          	addi	a4,a0,-8
    1458:	01f00793          	li	a5,31
    145c:	08e7c063          	blt	a5,a4,14dc <_min_stack+0x4dc>
    1460:	02000793          	li	a5,32
    1464:	40e787b3          	sub	a5,a5,a4
    1468:	00e91933          	sll	s2,s2,a4
    146c:	00f9d7b3          	srl	a5,s3,a5
    1470:	0127e7b3          	or	a5,a5,s2
    1474:	00e99533          	sll	a0,s3,a4
    1478:	0a874463          	blt	a4,s0,1520 <_min_stack+0x520>
    147c:	40870733          	sub	a4,a4,s0
    1480:	00170613          	addi	a2,a4,1
    1484:	01f00693          	li	a3,31
    1488:	06c6c263          	blt	a3,a2,14ec <_min_stack+0x4ec>
    148c:	02000713          	li	a4,32
    1490:	40c70733          	sub	a4,a4,a2
    1494:	00e796b3          	sll	a3,a5,a4
    1498:	00c555b3          	srl	a1,a0,a2
    149c:	00e51733          	sll	a4,a0,a4
    14a0:	00b6e6b3          	or	a3,a3,a1
    14a4:	00e03733          	snez	a4,a4
    14a8:	00e6e533          	or	a0,a3,a4
    14ac:	00c7d7b3          	srl	a5,a5,a2
    14b0:	00000413          	li	s0,0
    14b4:	c6dff06f          	j	1120 <_min_stack+0x120>
    14b8:	0129e533          	or	a0,s3,s2
    14bc:	f80516e3          	bnez	a0,1448 <_min_stack+0x448>
    14c0:	00000793          	li	a5,0
    14c4:	00000413          	li	s0,0
    14c8:	14c0006f          	j	1614 <_min_stack+0x614>
    14cc:	00098513          	mv	a0,s3
    14d0:	170000ef          	jal	ra,1640 <__clzsi2>
    14d4:	02050513          	addi	a0,a0,32
    14d8:	f7dff06f          	j	1454 <_min_stack+0x454>
    14dc:	fd850793          	addi	a5,a0,-40
    14e0:	00f997b3          	sll	a5,s3,a5
    14e4:	00000513          	li	a0,0
    14e8:	f91ff06f          	j	1478 <_min_stack+0x478>
    14ec:	fe170713          	addi	a4,a4,-31
    14f0:	02000593          	li	a1,32
    14f4:	00e7d733          	srl	a4,a5,a4
    14f8:	00000693          	li	a3,0
    14fc:	00b60863          	beq	a2,a1,150c <_min_stack+0x50c>
    1500:	04000693          	li	a3,64
    1504:	40c686b3          	sub	a3,a3,a2
    1508:	00d796b3          	sll	a3,a5,a3
    150c:	00d566b3          	or	a3,a0,a3
    1510:	00d036b3          	snez	a3,a3
    1514:	00d76533          	or	a0,a4,a3
    1518:	00000793          	li	a5,0
    151c:	f95ff06f          	j	14b0 <_min_stack+0x4b0>
    1520:	40e40433          	sub	s0,s0,a4
    1524:	ff800737          	lui	a4,0xff800
    1528:	fff70713          	addi	a4,a4,-1 # ff7fffff <_stack_start+0xff6f7fff>
    152c:	00e7f7b3          	and	a5,a5,a4
    1530:	bf1ff06f          	j	1120 <_min_stack+0x120>
    1534:	00070793          	mv	a5,a4
    1538:	00060513          	mv	a0,a2
    153c:	00058413          	mv	s0,a1
    1540:	be1ff06f          	j	1120 <_min_stack+0x120>
    1544:	00070793          	mv	a5,a4
    1548:	00060513          	mv	a0,a2
    154c:	bd5ff06f          	j	1120 <_min_stack+0x120>
    1550:	7ff00413          	li	s0,2047
    1554:	00000793          	li	a5,0
    1558:	00000513          	li	a0,0
    155c:	00800737          	lui	a4,0x800
    1560:	00e7f733          	and	a4,a5,a4
    1564:	00070e63          	beqz	a4,1580 <_min_stack+0x580>
    1568:	00140413          	addi	s0,s0,1
    156c:	7ff00713          	li	a4,2047
    1570:	0ce40263          	beq	s0,a4,1634 <_min_stack+0x634>
    1574:	ff800737          	lui	a4,0xff800
    1578:	fff70713          	addi	a4,a4,-1 # ff7fffff <_stack_start+0xff6f7fff>
    157c:	00e7f7b3          	and	a5,a5,a4
    1580:	01d79693          	slli	a3,a5,0x1d
    1584:	00355513          	srli	a0,a0,0x3
    1588:	7ff00713          	li	a4,2047
    158c:	00a6e6b3          	or	a3,a3,a0
    1590:	0037d793          	srli	a5,a5,0x3
    1594:	00e41e63          	bne	s0,a4,15b0 <_min_stack+0x5b0>
    1598:	00f6e6b3          	or	a3,a3,a5
    159c:	00000793          	li	a5,0
    15a0:	00068863          	beqz	a3,15b0 <_min_stack+0x5b0>
    15a4:	000807b7          	lui	a5,0x80
    15a8:	00000693          	li	a3,0
    15ac:	00000493          	li	s1,0
    15b0:	01441713          	slli	a4,s0,0x14
    15b4:	7ff00637          	lui	a2,0x7ff00
    15b8:	00c79793          	slli	a5,a5,0xc
    15bc:	01c12083          	lw	ra,28(sp)
    15c0:	01812403          	lw	s0,24(sp)
    15c4:	00c77733          	and	a4,a4,a2
    15c8:	00c7d793          	srli	a5,a5,0xc
    15cc:	01f49493          	slli	s1,s1,0x1f
    15d0:	00f767b3          	or	a5,a4,a5
    15d4:	0097e733          	or	a4,a5,s1
    15d8:	01012903          	lw	s2,16(sp)
    15dc:	01412483          	lw	s1,20(sp)
    15e0:	00c12983          	lw	s3,12(sp)
    15e4:	00068513          	mv	a0,a3
    15e8:	00070593          	mv	a1,a4
    15ec:	02010113          	addi	sp,sp,32
    15f0:	00008067          	ret
    15f4:	00080413          	mv	s0,a6
    15f8:	b29ff06f          	j	1120 <_min_stack+0x120>
    15fc:	00070793          	mv	a5,a4
    1600:	00060513          	mv	a0,a2
    1604:	00080413          	mv	s0,a6
    1608:	da1ff06f          	j	13a8 <_min_stack+0x3a8>
    160c:	00000793          	li	a5,0
    1610:	00000513          	li	a0,0
    1614:	00000493          	li	s1,0
    1618:	f45ff06f          	j	155c <_min_stack+0x55c>
    161c:	00000793          	li	a5,0
    1620:	ff5ff06f          	j	1614 <_min_stack+0x614>
    1624:	00000513          	li	a0,0
    1628:	00000493          	li	s1,0
    162c:	004007b7          	lui	a5,0x400
    1630:	b31ff06f          	j	1160 <_min_stack+0x160>
    1634:	00000793          	li	a5,0
    1638:	00000513          	li	a0,0
    163c:	f45ff06f          	j	1580 <_min_stack+0x580>

00001640 <__clzsi2>:
    1640:	000107b7          	lui	a5,0x10
    1644:	02f57a63          	bgeu	a0,a5,1678 <__clzsi2+0x38>
    1648:	10053793          	sltiu	a5,a0,256
    164c:	0017c793          	xori	a5,a5,1
    1650:	00379793          	slli	a5,a5,0x3
    1654:	00100737          	lui	a4,0x100
    1658:	02000693          	li	a3,32
    165c:	40f686b3          	sub	a3,a3,a5
    1660:	00f55533          	srl	a0,a0,a5
    1664:	00070793          	mv	a5,a4
    1668:	00a787b3          	add	a5,a5,a0
    166c:	0007c503          	lbu	a0,0(a5) # 10000 <__DTOR_END__+0x7fec>
    1670:	40a68533          	sub	a0,a3,a0
    1674:	00008067          	ret
    1678:	01000737          	lui	a4,0x1000
    167c:	01000793          	li	a5,16
    1680:	fce56ae3          	bltu	a0,a4,1654 <__clzsi2+0x14>
    1684:	01800793          	li	a5,24
    1688:	fcdff06f          	j	1654 <__clzsi2+0x14>

0000168c <__divdf3>:
    168c:	fd010113          	addi	sp,sp,-48
    1690:	0145d813          	srli	a6,a1,0x14
    1694:	02912223          	sw	s1,36(sp)
    1698:	01312e23          	sw	s3,28(sp)
    169c:	01412c23          	sw	s4,24(sp)
    16a0:	01612823          	sw	s6,16(sp)
    16a4:	01812423          	sw	s8,8(sp)
    16a8:	00c59493          	slli	s1,a1,0xc
    16ac:	02112623          	sw	ra,44(sp)
    16b0:	02812423          	sw	s0,40(sp)
    16b4:	03212023          	sw	s2,32(sp)
    16b8:	01512a23          	sw	s5,20(sp)
    16bc:	01712623          	sw	s7,12(sp)
    16c0:	7ff87813          	andi	a6,a6,2047
    16c4:	00050a13          	mv	s4,a0
    16c8:	00060b13          	mv	s6,a2
    16cc:	00068c13          	mv	s8,a3
    16d0:	00c4d493          	srli	s1,s1,0xc
    16d4:	01f5d993          	srli	s3,a1,0x1f
    16d8:	0a080063          	beqz	a6,1778 <__divdf3+0xec>
    16dc:	7ff00793          	li	a5,2047
    16e0:	0ef80e63          	beq	a6,a5,17dc <__divdf3+0x150>
    16e4:	01d55a93          	srli	s5,a0,0x1d
    16e8:	00349493          	slli	s1,s1,0x3
    16ec:	009aeab3          	or	s5,s5,s1
    16f0:	008007b7          	lui	a5,0x800
    16f4:	00faeab3          	or	s5,s5,a5
    16f8:	00351413          	slli	s0,a0,0x3
    16fc:	c0180913          	addi	s2,a6,-1023
    1700:	00000b93          	li	s7,0
    1704:	014c5793          	srli	a5,s8,0x14
    1708:	00cc1493          	slli	s1,s8,0xc
    170c:	7ff7f793          	andi	a5,a5,2047
    1710:	00c4d493          	srli	s1,s1,0xc
    1714:	01fc5c13          	srli	s8,s8,0x1f
    1718:	10078063          	beqz	a5,1818 <__divdf3+0x18c>
    171c:	7ff00713          	li	a4,2047
    1720:	16e78063          	beq	a5,a4,1880 <__divdf3+0x1f4>
    1724:	00349493          	slli	s1,s1,0x3
    1728:	01db5713          	srli	a4,s6,0x1d
    172c:	00976733          	or	a4,a4,s1
    1730:	008004b7          	lui	s1,0x800
    1734:	009764b3          	or	s1,a4,s1
    1738:	003b1e93          	slli	t4,s6,0x3
    173c:	c0178793          	addi	a5,a5,-1023 # 7ffc01 <_stack_start+0x6f7c01>
    1740:	00000713          	li	a4,0
    1744:	40f90833          	sub	a6,s2,a5
    1748:	002b9793          	slli	a5,s7,0x2
    174c:	00e7e7b3          	or	a5,a5,a4
    1750:	fff78793          	addi	a5,a5,-1
    1754:	00e00693          	li	a3,14
    1758:	0189c633          	xor	a2,s3,s8
    175c:	14f6ee63          	bltu	a3,a5,18b8 <__divdf3+0x22c>
    1760:	001006b7          	lui	a3,0x100
    1764:	00279793          	slli	a5,a5,0x2
    1768:	10068693          	addi	a3,a3,256 # 100100 <__clz_tab+0x100>
    176c:	00d787b3          	add	a5,a5,a3
    1770:	0007a783          	lw	a5,0(a5)
    1774:	00078067          	jr	a5
    1778:	00a4eab3          	or	s5,s1,a0
    177c:	060a8e63          	beqz	s5,17f8 <__divdf3+0x16c>
    1780:	04048063          	beqz	s1,17c0 <__divdf3+0x134>
    1784:	00048513          	mv	a0,s1
    1788:	eb9ff0ef          	jal	ra,1640 <__clzsi2>
    178c:	ff550793          	addi	a5,a0,-11
    1790:	01c00713          	li	a4,28
    1794:	02f74c63          	blt	a4,a5,17cc <__divdf3+0x140>
    1798:	01d00a93          	li	s5,29
    179c:	ff850413          	addi	s0,a0,-8
    17a0:	40fa8ab3          	sub	s5,s5,a5
    17a4:	008494b3          	sll	s1,s1,s0
    17a8:	015a5ab3          	srl	s5,s4,s5
    17ac:	009aeab3          	or	s5,s5,s1
    17b0:	008a1433          	sll	s0,s4,s0
    17b4:	c0d00813          	li	a6,-1011
    17b8:	40a80933          	sub	s2,a6,a0
    17bc:	f45ff06f          	j	1700 <__divdf3+0x74>
    17c0:	e81ff0ef          	jal	ra,1640 <__clzsi2>
    17c4:	02050513          	addi	a0,a0,32
    17c8:	fc5ff06f          	j	178c <__divdf3+0x100>
    17cc:	fd850a93          	addi	s5,a0,-40
    17d0:	015a1ab3          	sll	s5,s4,s5
    17d4:	00000413          	li	s0,0
    17d8:	fddff06f          	j	17b4 <__divdf3+0x128>
    17dc:	00a4eab3          	or	s5,s1,a0
    17e0:	020a8463          	beqz	s5,1808 <__divdf3+0x17c>
    17e4:	00050413          	mv	s0,a0
    17e8:	00048a93          	mv	s5,s1
    17ec:	7ff00913          	li	s2,2047
    17f0:	00300b93          	li	s7,3
    17f4:	f11ff06f          	j	1704 <__divdf3+0x78>
    17f8:	00000413          	li	s0,0
    17fc:	00000913          	li	s2,0
    1800:	00100b93          	li	s7,1
    1804:	f01ff06f          	j	1704 <__divdf3+0x78>
    1808:	00000413          	li	s0,0
    180c:	7ff00913          	li	s2,2047
    1810:	00200b93          	li	s7,2
    1814:	ef1ff06f          	j	1704 <__divdf3+0x78>
    1818:	0164eeb3          	or	t4,s1,s6
    181c:	060e8e63          	beqz	t4,1898 <__divdf3+0x20c>
    1820:	04048063          	beqz	s1,1860 <__divdf3+0x1d4>
    1824:	00048513          	mv	a0,s1
    1828:	e19ff0ef          	jal	ra,1640 <__clzsi2>
    182c:	ff550713          	addi	a4,a0,-11
    1830:	01c00793          	li	a5,28
    1834:	02e7ce63          	blt	a5,a4,1870 <__divdf3+0x1e4>
    1838:	01d00793          	li	a5,29
    183c:	ff850e93          	addi	t4,a0,-8
    1840:	40e787b3          	sub	a5,a5,a4
    1844:	01d494b3          	sll	s1,s1,t4
    1848:	00fb57b3          	srl	a5,s6,a5
    184c:	0097e4b3          	or	s1,a5,s1
    1850:	01db1eb3          	sll	t4,s6,t4
    1854:	c0d00793          	li	a5,-1011
    1858:	40a787b3          	sub	a5,a5,a0
    185c:	ee5ff06f          	j	1740 <__divdf3+0xb4>
    1860:	000b0513          	mv	a0,s6
    1864:	dddff0ef          	jal	ra,1640 <__clzsi2>
    1868:	02050513          	addi	a0,a0,32
    186c:	fc1ff06f          	j	182c <__divdf3+0x1a0>
    1870:	fd850493          	addi	s1,a0,-40
    1874:	009b14b3          	sll	s1,s6,s1
    1878:	00000e93          	li	t4,0
    187c:	fd9ff06f          	j	1854 <__divdf3+0x1c8>
    1880:	0164eeb3          	or	t4,s1,s6
    1884:	020e8263          	beqz	t4,18a8 <__divdf3+0x21c>
    1888:	000b0e93          	mv	t4,s6
    188c:	7ff00793          	li	a5,2047
    1890:	00300713          	li	a4,3
    1894:	eb1ff06f          	j	1744 <__divdf3+0xb8>
    1898:	00000493          	li	s1,0
    189c:	00000793          	li	a5,0
    18a0:	00100713          	li	a4,1
    18a4:	ea1ff06f          	j	1744 <__divdf3+0xb8>
    18a8:	00000493          	li	s1,0
    18ac:	7ff00793          	li	a5,2047
    18b0:	00200713          	li	a4,2
    18b4:	e91ff06f          	j	1744 <__divdf3+0xb8>
    18b8:	0154e663          	bltu	s1,s5,18c4 <__divdf3+0x238>
    18bc:	349a9e63          	bne	s5,s1,1c18 <__divdf3+0x58c>
    18c0:	35d46c63          	bltu	s0,t4,1c18 <__divdf3+0x58c>
    18c4:	01fa9713          	slli	a4,s5,0x1f
    18c8:	00145793          	srli	a5,s0,0x1
    18cc:	01f41f13          	slli	t5,s0,0x1f
    18d0:	001ada93          	srli	s5,s5,0x1
    18d4:	00f76433          	or	s0,a4,a5
    18d8:	00849513          	slli	a0,s1,0x8
    18dc:	018ed693          	srli	a3,t4,0x18
    18e0:	00a6e6b3          	or	a3,a3,a0
    18e4:	01055513          	srli	a0,a0,0x10
    18e8:	02aade33          	divu	t3,s5,a0
    18ec:	01069313          	slli	t1,a3,0x10
    18f0:	01035313          	srli	t1,t1,0x10
    18f4:	01045793          	srli	a5,s0,0x10
    18f8:	008e9593          	slli	a1,t4,0x8
    18fc:	02aafab3          	remu	s5,s5,a0
    1900:	000e0713          	mv	a4,t3
    1904:	03c308b3          	mul	a7,t1,t3
    1908:	010a9a93          	slli	s5,s5,0x10
    190c:	0157e7b3          	or	a5,a5,s5
    1910:	0117fe63          	bgeu	a5,a7,192c <__divdf3+0x2a0>
    1914:	00d787b3          	add	a5,a5,a3
    1918:	fffe0713          	addi	a4,t3,-1
    191c:	00d7e863          	bltu	a5,a3,192c <__divdf3+0x2a0>
    1920:	0117f663          	bgeu	a5,a7,192c <__divdf3+0x2a0>
    1924:	ffee0713          	addi	a4,t3,-2
    1928:	00d787b3          	add	a5,a5,a3
    192c:	411787b3          	sub	a5,a5,a7
    1930:	02a7de33          	divu	t3,a5,a0
    1934:	01041413          	slli	s0,s0,0x10
    1938:	01045413          	srli	s0,s0,0x10
    193c:	02a7f7b3          	remu	a5,a5,a0
    1940:	03c308b3          	mul	a7,t1,t3
    1944:	01079793          	slli	a5,a5,0x10
    1948:	00f46433          	or	s0,s0,a5
    194c:	000e0793          	mv	a5,t3
    1950:	01147e63          	bgeu	s0,a7,196c <__divdf3+0x2e0>
    1954:	00d40433          	add	s0,s0,a3
    1958:	fffe0793          	addi	a5,t3,-1
    195c:	00d46863          	bltu	s0,a3,196c <__divdf3+0x2e0>
    1960:	01147663          	bgeu	s0,a7,196c <__divdf3+0x2e0>
    1964:	ffee0793          	addi	a5,t3,-2
    1968:	00d40433          	add	s0,s0,a3
    196c:	01071713          	slli	a4,a4,0x10
    1970:	000103b7          	lui	t2,0x10
    1974:	00f76fb3          	or	t6,a4,a5
    1978:	41140433          	sub	s0,s0,a7
    197c:	fff38893          	addi	a7,t2,-1 # ffff <__DTOR_END__+0x7feb>
    1980:	011ff7b3          	and	a5,t6,a7
    1984:	010fde93          	srli	t4,t6,0x10
    1988:	0105de13          	srli	t3,a1,0x10
    198c:	0115f8b3          	and	a7,a1,a7
    1990:	02f882b3          	mul	t0,a7,a5
    1994:	031e84b3          	mul	s1,t4,a7
    1998:	0102d713          	srli	a4,t0,0x10
    199c:	02fe07b3          	mul	a5,t3,a5
    19a0:	009787b3          	add	a5,a5,s1
    19a4:	00f70733          	add	a4,a4,a5
    19a8:	03ce8eb3          	mul	t4,t4,t3
    19ac:	00977463          	bgeu	a4,s1,19b4 <__divdf3+0x328>
    19b0:	007e8eb3          	add	t4,t4,t2
    19b4:	01075793          	srli	a5,a4,0x10
    19b8:	01d787b3          	add	a5,a5,t4
    19bc:	00010eb7          	lui	t4,0x10
    19c0:	fffe8e93          	addi	t4,t4,-1 # ffff <__DTOR_END__+0x7feb>
    19c4:	01d77733          	and	a4,a4,t4
    19c8:	01071713          	slli	a4,a4,0x10
    19cc:	01d2f2b3          	and	t0,t0,t4
    19d0:	00570733          	add	a4,a4,t0
    19d4:	00f46863          	bltu	s0,a5,19e4 <__divdf3+0x358>
    19d8:	000f8493          	mv	s1,t6
    19dc:	04f41463          	bne	s0,a5,1a24 <__divdf3+0x398>
    19e0:	04ef7263          	bgeu	t5,a4,1a24 <__divdf3+0x398>
    19e4:	00bf0f33          	add	t5,t5,a1
    19e8:	00bf3eb3          	sltu	t4,t5,a1
    19ec:	00de8eb3          	add	t4,t4,a3
    19f0:	01d40433          	add	s0,s0,t4
    19f4:	ffff8493          	addi	s1,t6,-1
    19f8:	0086e663          	bltu	a3,s0,1a04 <__divdf3+0x378>
    19fc:	02869463          	bne	a3,s0,1a24 <__divdf3+0x398>
    1a00:	02bf6263          	bltu	t5,a1,1a24 <__divdf3+0x398>
    1a04:	00f46663          	bltu	s0,a5,1a10 <__divdf3+0x384>
    1a08:	00879e63          	bne	a5,s0,1a24 <__divdf3+0x398>
    1a0c:	00ef7c63          	bgeu	t5,a4,1a24 <__divdf3+0x398>
    1a10:	00bf0f33          	add	t5,t5,a1
    1a14:	00bf3eb3          	sltu	t4,t5,a1
    1a18:	00de8eb3          	add	t4,t4,a3
    1a1c:	ffef8493          	addi	s1,t6,-2
    1a20:	01d40433          	add	s0,s0,t4
    1a24:	40ef0733          	sub	a4,t5,a4
    1a28:	40f40433          	sub	s0,s0,a5
    1a2c:	00ef37b3          	sltu	a5,t5,a4
    1a30:	40f40433          	sub	s0,s0,a5
    1a34:	fff00e93          	li	t4,-1
    1a38:	12868463          	beq	a3,s0,1b60 <__divdf3+0x4d4>
    1a3c:	02a45fb3          	divu	t6,s0,a0
    1a40:	01075793          	srli	a5,a4,0x10
    1a44:	02a47433          	remu	s0,s0,a0
    1a48:	000f8e93          	mv	t4,t6
    1a4c:	03f30f33          	mul	t5,t1,t6
    1a50:	01041413          	slli	s0,s0,0x10
    1a54:	0087e7b3          	or	a5,a5,s0
    1a58:	01e7fe63          	bgeu	a5,t5,1a74 <__divdf3+0x3e8>
    1a5c:	00d787b3          	add	a5,a5,a3
    1a60:	ffff8e93          	addi	t4,t6,-1
    1a64:	00d7e863          	bltu	a5,a3,1a74 <__divdf3+0x3e8>
    1a68:	01e7f663          	bgeu	a5,t5,1a74 <__divdf3+0x3e8>
    1a6c:	ffef8e93          	addi	t4,t6,-2
    1a70:	00d787b3          	add	a5,a5,a3
    1a74:	41e787b3          	sub	a5,a5,t5
    1a78:	02a7df33          	divu	t5,a5,a0
    1a7c:	01071713          	slli	a4,a4,0x10
    1a80:	01075713          	srli	a4,a4,0x10
    1a84:	02a7f7b3          	remu	a5,a5,a0
    1a88:	000f0513          	mv	a0,t5
    1a8c:	03e30333          	mul	t1,t1,t5
    1a90:	01079793          	slli	a5,a5,0x10
    1a94:	00f76733          	or	a4,a4,a5
    1a98:	00677e63          	bgeu	a4,t1,1ab4 <__divdf3+0x428>
    1a9c:	00d70733          	add	a4,a4,a3
    1aa0:	ffff0513          	addi	a0,t5,-1
    1aa4:	00d76863          	bltu	a4,a3,1ab4 <__divdf3+0x428>
    1aa8:	00677663          	bgeu	a4,t1,1ab4 <__divdf3+0x428>
    1aac:	ffef0513          	addi	a0,t5,-2
    1ab0:	00d70733          	add	a4,a4,a3
    1ab4:	010e9793          	slli	a5,t4,0x10
    1ab8:	00a7e7b3          	or	a5,a5,a0
    1abc:	01079513          	slli	a0,a5,0x10
    1ac0:	01055513          	srli	a0,a0,0x10
    1ac4:	40670733          	sub	a4,a4,t1
    1ac8:	0107d313          	srli	t1,a5,0x10
    1acc:	03150eb3          	mul	t4,a0,a7
    1ad0:	031308b3          	mul	a7,t1,a7
    1ad4:	026e0333          	mul	t1,t3,t1
    1ad8:	02ae0e33          	mul	t3,t3,a0
    1adc:	010ed513          	srli	a0,t4,0x10
    1ae0:	011e0e33          	add	t3,t3,a7
    1ae4:	01c50533          	add	a0,a0,t3
    1ae8:	01157663          	bgeu	a0,a7,1af4 <__divdf3+0x468>
    1aec:	000108b7          	lui	a7,0x10
    1af0:	01130333          	add	t1,t1,a7
    1af4:	01055893          	srli	a7,a0,0x10
    1af8:	006888b3          	add	a7,a7,t1
    1afc:	00010337          	lui	t1,0x10
    1b00:	fff30313          	addi	t1,t1,-1 # ffff <__DTOR_END__+0x7feb>
    1b04:	00657533          	and	a0,a0,t1
    1b08:	01051513          	slli	a0,a0,0x10
    1b0c:	006efeb3          	and	t4,t4,t1
    1b10:	01d50533          	add	a0,a0,t4
    1b14:	01176863          	bltu	a4,a7,1b24 <__divdf3+0x498>
    1b18:	25171463          	bne	a4,a7,1d60 <__divdf3+0x6d4>
    1b1c:	00078e93          	mv	t4,a5
    1b20:	04050063          	beqz	a0,1b60 <__divdf3+0x4d4>
    1b24:	00e68733          	add	a4,a3,a4
    1b28:	fff78e93          	addi	t4,a5,-1
    1b2c:	02d76463          	bltu	a4,a3,1b54 <__divdf3+0x4c8>
    1b30:	01176663          	bltu	a4,a7,1b3c <__divdf3+0x4b0>
    1b34:	23171463          	bne	a4,a7,1d5c <__divdf3+0x6d0>
    1b38:	02a5f063          	bgeu	a1,a0,1b58 <__divdf3+0x4cc>
    1b3c:	ffe78e93          	addi	t4,a5,-2
    1b40:	00159793          	slli	a5,a1,0x1
    1b44:	00b7b5b3          	sltu	a1,a5,a1
    1b48:	00d585b3          	add	a1,a1,a3
    1b4c:	00b70733          	add	a4,a4,a1
    1b50:	00078593          	mv	a1,a5
    1b54:	01171463          	bne	a4,a7,1b5c <__divdf3+0x4d0>
    1b58:	00b50463          	beq	a0,a1,1b60 <__divdf3+0x4d4>
    1b5c:	001eee93          	ori	t4,t4,1
    1b60:	3ff80793          	addi	a5,a6,1023
    1b64:	10f05a63          	blez	a5,1c78 <__divdf3+0x5ec>
    1b68:	007ef713          	andi	a4,t4,7
    1b6c:	02070063          	beqz	a4,1b8c <__divdf3+0x500>
    1b70:	00fef713          	andi	a4,t4,15
    1b74:	00400693          	li	a3,4
    1b78:	00d70a63          	beq	a4,a3,1b8c <__divdf3+0x500>
    1b7c:	004e8713          	addi	a4,t4,4
    1b80:	01d73eb3          	sltu	t4,a4,t4
    1b84:	01d484b3          	add	s1,s1,t4
    1b88:	00070e93          	mv	t4,a4
    1b8c:	01000737          	lui	a4,0x1000
    1b90:	00e4f733          	and	a4,s1,a4
    1b94:	00070a63          	beqz	a4,1ba8 <__divdf3+0x51c>
    1b98:	ff0007b7          	lui	a5,0xff000
    1b9c:	fff78793          	addi	a5,a5,-1 # feffffff <_stack_start+0xfeef7fff>
    1ba0:	00f4f4b3          	and	s1,s1,a5
    1ba4:	40080793          	addi	a5,a6,1024
    1ba8:	7fe00713          	li	a4,2046
    1bac:	0af74063          	blt	a4,a5,1c4c <__divdf3+0x5c0>
    1bb0:	003ede93          	srli	t4,t4,0x3
    1bb4:	01d49713          	slli	a4,s1,0x1d
    1bb8:	01d76733          	or	a4,a4,t4
    1bbc:	0034d513          	srli	a0,s1,0x3
    1bc0:	7ff006b7          	lui	a3,0x7ff00
    1bc4:	01479793          	slli	a5,a5,0x14
    1bc8:	00c51513          	slli	a0,a0,0xc
    1bcc:	02c12083          	lw	ra,44(sp)
    1bd0:	02812403          	lw	s0,40(sp)
    1bd4:	00d7f7b3          	and	a5,a5,a3
    1bd8:	00c55513          	srli	a0,a0,0xc
    1bdc:	00a7e7b3          	or	a5,a5,a0
    1be0:	01f61613          	slli	a2,a2,0x1f
    1be4:	00c7e6b3          	or	a3,a5,a2
    1be8:	02412483          	lw	s1,36(sp)
    1bec:	02012903          	lw	s2,32(sp)
    1bf0:	01c12983          	lw	s3,28(sp)
    1bf4:	01812a03          	lw	s4,24(sp)
    1bf8:	01412a83          	lw	s5,20(sp)
    1bfc:	01012b03          	lw	s6,16(sp)
    1c00:	00c12b83          	lw	s7,12(sp)
    1c04:	00812c03          	lw	s8,8(sp)
    1c08:	00070513          	mv	a0,a4
    1c0c:	00068593          	mv	a1,a3
    1c10:	03010113          	addi	sp,sp,48
    1c14:	00008067          	ret
    1c18:	fff80813          	addi	a6,a6,-1
    1c1c:	00000f13          	li	t5,0
    1c20:	cb9ff06f          	j	18d8 <__divdf3+0x24c>
    1c24:	00098613          	mv	a2,s3
    1c28:	000a8493          	mv	s1,s5
    1c2c:	00040e93          	mv	t4,s0
    1c30:	000b8713          	mv	a4,s7
    1c34:	00300793          	li	a5,3
    1c38:	10f70063          	beq	a4,a5,1d38 <__divdf3+0x6ac>
    1c3c:	00100793          	li	a5,1
    1c40:	0ef70663          	beq	a4,a5,1d2c <__divdf3+0x6a0>
    1c44:	00200793          	li	a5,2
    1c48:	f0f71ce3          	bne	a4,a5,1b60 <__divdf3+0x4d4>
    1c4c:	00000513          	li	a0,0
    1c50:	00000713          	li	a4,0
    1c54:	7ff00793          	li	a5,2047
    1c58:	f69ff06f          	j	1bc0 <__divdf3+0x534>
    1c5c:	000c0613          	mv	a2,s8
    1c60:	fd5ff06f          	j	1c34 <__divdf3+0x5a8>
    1c64:	000804b7          	lui	s1,0x80
    1c68:	00000e93          	li	t4,0
    1c6c:	00000613          	li	a2,0
    1c70:	00300713          	li	a4,3
    1c74:	fc1ff06f          	j	1c34 <__divdf3+0x5a8>
    1c78:	00100513          	li	a0,1
    1c7c:	40f50533          	sub	a0,a0,a5
    1c80:	03800713          	li	a4,56
    1c84:	0aa74463          	blt	a4,a0,1d2c <__divdf3+0x6a0>
    1c88:	01f00713          	li	a4,31
    1c8c:	06a74663          	blt	a4,a0,1cf8 <__divdf3+0x66c>
    1c90:	41e80813          	addi	a6,a6,1054
    1c94:	010497b3          	sll	a5,s1,a6
    1c98:	00aed733          	srl	a4,t4,a0
    1c9c:	010e9833          	sll	a6,t4,a6
    1ca0:	00e7e7b3          	or	a5,a5,a4
    1ca4:	01003833          	snez	a6,a6
    1ca8:	0107e7b3          	or	a5,a5,a6
    1cac:	00a4d533          	srl	a0,s1,a0
    1cb0:	0077f713          	andi	a4,a5,7
    1cb4:	02070063          	beqz	a4,1cd4 <__divdf3+0x648>
    1cb8:	00f7f713          	andi	a4,a5,15
    1cbc:	00400693          	li	a3,4
    1cc0:	00d70a63          	beq	a4,a3,1cd4 <__divdf3+0x648>
    1cc4:	00478713          	addi	a4,a5,4
    1cc8:	00f737b3          	sltu	a5,a4,a5
    1ccc:	00f50533          	add	a0,a0,a5
    1cd0:	00070793          	mv	a5,a4
    1cd4:	00800737          	lui	a4,0x800
    1cd8:	00e57733          	and	a4,a0,a4
    1cdc:	06071863          	bnez	a4,1d4c <__divdf3+0x6c0>
    1ce0:	01d51713          	slli	a4,a0,0x1d
    1ce4:	0037d793          	srli	a5,a5,0x3
    1ce8:	00f76733          	or	a4,a4,a5
    1cec:	00355513          	srli	a0,a0,0x3
    1cf0:	00000793          	li	a5,0
    1cf4:	ecdff06f          	j	1bc0 <__divdf3+0x534>
    1cf8:	fe100713          	li	a4,-31
    1cfc:	40f707b3          	sub	a5,a4,a5
    1d00:	02000693          	li	a3,32
    1d04:	00f4d7b3          	srl	a5,s1,a5
    1d08:	00000713          	li	a4,0
    1d0c:	00d50663          	beq	a0,a3,1d18 <__divdf3+0x68c>
    1d10:	43e80713          	addi	a4,a6,1086
    1d14:	00e49733          	sll	a4,s1,a4
    1d18:	01d76733          	or	a4,a4,t4
    1d1c:	00e03733          	snez	a4,a4
    1d20:	00e7e7b3          	or	a5,a5,a4
    1d24:	00000513          	li	a0,0
    1d28:	f89ff06f          	j	1cb0 <__divdf3+0x624>
    1d2c:	00000513          	li	a0,0
    1d30:	00000713          	li	a4,0
    1d34:	fbdff06f          	j	1cf0 <__divdf3+0x664>
    1d38:	00080537          	lui	a0,0x80
    1d3c:	00000713          	li	a4,0
    1d40:	7ff00793          	li	a5,2047
    1d44:	00000613          	li	a2,0
    1d48:	e79ff06f          	j	1bc0 <__divdf3+0x534>
    1d4c:	00000513          	li	a0,0
    1d50:	00000713          	li	a4,0
    1d54:	00100793          	li	a5,1
    1d58:	e69ff06f          	j	1bc0 <__divdf3+0x534>
    1d5c:	000e8793          	mv	a5,t4
    1d60:	00078e93          	mv	t4,a5
    1d64:	df9ff06f          	j	1b5c <__divdf3+0x4d0>

00001d68 <__eqdf2>:
    1d68:	0145d713          	srli	a4,a1,0x14
    1d6c:	001007b7          	lui	a5,0x100
    1d70:	fff78793          	addi	a5,a5,-1 # fffff <__DTOR_END__+0xf7feb>
    1d74:	0146d813          	srli	a6,a3,0x14
    1d78:	00050313          	mv	t1,a0
    1d7c:	00050e93          	mv	t4,a0
    1d80:	7ff77713          	andi	a4,a4,2047
    1d84:	7ff00513          	li	a0,2047
    1d88:	00b7f8b3          	and	a7,a5,a1
    1d8c:	00060f13          	mv	t5,a2
    1d90:	00d7f7b3          	and	a5,a5,a3
    1d94:	01f5d593          	srli	a1,a1,0x1f
    1d98:	7ff87813          	andi	a6,a6,2047
    1d9c:	01f6d693          	srli	a3,a3,0x1f
    1da0:	00a71c63          	bne	a4,a0,1db8 <__eqdf2+0x50>
    1da4:	0068ee33          	or	t3,a7,t1
    1da8:	00100513          	li	a0,1
    1dac:	000e1463          	bnez	t3,1db4 <__eqdf2+0x4c>
    1db0:	00e80663          	beq	a6,a4,1dbc <__eqdf2+0x54>
    1db4:	00008067          	ret
    1db8:	00a81863          	bne	a6,a0,1dc8 <__eqdf2+0x60>
    1dbc:	00c7e633          	or	a2,a5,a2
    1dc0:	00100513          	li	a0,1
    1dc4:	fe0618e3          	bnez	a2,1db4 <__eqdf2+0x4c>
    1dc8:	00100513          	li	a0,1
    1dcc:	ff0714e3          	bne	a4,a6,1db4 <__eqdf2+0x4c>
    1dd0:	fef892e3          	bne	a7,a5,1db4 <__eqdf2+0x4c>
    1dd4:	ffee90e3          	bne	t4,t5,1db4 <__eqdf2+0x4c>
    1dd8:	00d58a63          	beq	a1,a3,1dec <__eqdf2+0x84>
    1ddc:	fc071ce3          	bnez	a4,1db4 <__eqdf2+0x4c>
    1de0:	0068e8b3          	or	a7,a7,t1
    1de4:	01103533          	snez	a0,a7
    1de8:	00008067          	ret
    1dec:	00000513          	li	a0,0
    1df0:	00008067          	ret

00001df4 <__gedf2>:
    1df4:	00100737          	lui	a4,0x100
    1df8:	fff70713          	addi	a4,a4,-1 # fffff <__DTOR_END__+0xf7feb>
    1dfc:	0145d813          	srli	a6,a1,0x14
    1e00:	00b778b3          	and	a7,a4,a1
    1e04:	00050793          	mv	a5,a0
    1e08:	00050313          	mv	t1,a0
    1e0c:	7ff87813          	andi	a6,a6,2047
    1e10:	01f5d513          	srli	a0,a1,0x1f
    1e14:	7ff00e93          	li	t4,2047
    1e18:	0146d593          	srli	a1,a3,0x14
    1e1c:	00d77733          	and	a4,a4,a3
    1e20:	00060e13          	mv	t3,a2
    1e24:	7ff5f593          	andi	a1,a1,2047
    1e28:	01f6d693          	srli	a3,a3,0x1f
    1e2c:	01d81a63          	bne	a6,t4,1e40 <__gedf2+0x4c>
    1e30:	00f8eeb3          	or	t4,a7,a5
    1e34:	080e8a63          	beqz	t4,1ec8 <__gedf2+0xd4>
    1e38:	ffe00513          	li	a0,-2
    1e3c:	00008067          	ret
    1e40:	01d59663          	bne	a1,t4,1e4c <__gedf2+0x58>
    1e44:	00c76eb3          	or	t4,a4,a2
    1e48:	fe0e98e3          	bnez	t4,1e38 <__gedf2+0x44>
    1e4c:	08081063          	bnez	a6,1ecc <__gedf2+0xd8>
    1e50:	00f8e7b3          	or	a5,a7,a5
    1e54:	0017b793          	seqz	a5,a5
    1e58:	00059663          	bnez	a1,1e64 <__gedf2+0x70>
    1e5c:	00c76633          	or	a2,a4,a2
    1e60:	04060c63          	beqz	a2,1eb8 <__gedf2+0xc4>
    1e64:	00079c63          	bnez	a5,1e7c <__gedf2+0x88>
    1e68:	00d51463          	bne	a0,a3,1e70 <__gedf2+0x7c>
    1e6c:	0305d063          	bge	a1,a6,1e8c <__gedf2+0x98>
    1e70:	04050063          	beqz	a0,1eb0 <__gedf2+0xbc>
    1e74:	fff00513          	li	a0,-1
    1e78:	00008067          	ret
    1e7c:	fff00513          	li	a0,-1
    1e80:	00068a63          	beqz	a3,1e94 <__gedf2+0xa0>
    1e84:	00068513          	mv	a0,a3
    1e88:	00008067          	ret
    1e8c:	00b85663          	bge	a6,a1,1e98 <__gedf2+0xa4>
    1e90:	fe0502e3          	beqz	a0,1e74 <__gedf2+0x80>
    1e94:	00008067          	ret
    1e98:	fd176ce3          	bltu	a4,a7,1e70 <__gedf2+0x7c>
    1e9c:	02e89263          	bne	a7,a4,1ec0 <__gedf2+0xcc>
    1ea0:	fc6e68e3          	bltu	t3,t1,1e70 <__gedf2+0x7c>
    1ea4:	ffc366e3          	bltu	t1,t3,1e90 <__gedf2+0x9c>
    1ea8:	00000513          	li	a0,0
    1eac:	00008067          	ret
    1eb0:	00100513          	li	a0,1
    1eb4:	00008067          	ret
    1eb8:	fe0798e3          	bnez	a5,1ea8 <__gedf2+0xb4>
    1ebc:	fb5ff06f          	j	1e70 <__gedf2+0x7c>
    1ec0:	fce8e8e3          	bltu	a7,a4,1e90 <__gedf2+0x9c>
    1ec4:	fe5ff06f          	j	1ea8 <__gedf2+0xb4>
    1ec8:	f7058ee3          	beq	a1,a6,1e44 <__gedf2+0x50>
    1ecc:	f8059ee3          	bnez	a1,1e68 <__gedf2+0x74>
    1ed0:	00000793          	li	a5,0
    1ed4:	f89ff06f          	j	1e5c <__gedf2+0x68>

00001ed8 <__ledf2>:
    1ed8:	00100737          	lui	a4,0x100
    1edc:	fff70713          	addi	a4,a4,-1 # fffff <__DTOR_END__+0xf7feb>
    1ee0:	0145d813          	srli	a6,a1,0x14
    1ee4:	00b778b3          	and	a7,a4,a1
    1ee8:	00050793          	mv	a5,a0
    1eec:	00050313          	mv	t1,a0
    1ef0:	7ff87813          	andi	a6,a6,2047
    1ef4:	01f5d513          	srli	a0,a1,0x1f
    1ef8:	7ff00e93          	li	t4,2047
    1efc:	0146d593          	srli	a1,a3,0x14
    1f00:	00d77733          	and	a4,a4,a3
    1f04:	00060e13          	mv	t3,a2
    1f08:	7ff5f593          	andi	a1,a1,2047
    1f0c:	01f6d693          	srli	a3,a3,0x1f
    1f10:	01d81a63          	bne	a6,t4,1f24 <__ledf2+0x4c>
    1f14:	00f8eeb3          	or	t4,a7,a5
    1f18:	080e8a63          	beqz	t4,1fac <__ledf2+0xd4>
    1f1c:	00200513          	li	a0,2
    1f20:	00008067          	ret
    1f24:	01d59663          	bne	a1,t4,1f30 <__ledf2+0x58>
    1f28:	00c76eb3          	or	t4,a4,a2
    1f2c:	fe0e98e3          	bnez	t4,1f1c <__ledf2+0x44>
    1f30:	08081063          	bnez	a6,1fb0 <__ledf2+0xd8>
    1f34:	00f8e7b3          	or	a5,a7,a5
    1f38:	0017b793          	seqz	a5,a5
    1f3c:	00059663          	bnez	a1,1f48 <__ledf2+0x70>
    1f40:	00c76633          	or	a2,a4,a2
    1f44:	04060c63          	beqz	a2,1f9c <__ledf2+0xc4>
    1f48:	00079c63          	bnez	a5,1f60 <__ledf2+0x88>
    1f4c:	00d51463          	bne	a0,a3,1f54 <__ledf2+0x7c>
    1f50:	0305d063          	bge	a1,a6,1f70 <__ledf2+0x98>
    1f54:	04050063          	beqz	a0,1f94 <__ledf2+0xbc>
    1f58:	fff00513          	li	a0,-1
    1f5c:	00008067          	ret
    1f60:	fff00513          	li	a0,-1
    1f64:	00068a63          	beqz	a3,1f78 <__ledf2+0xa0>
    1f68:	00068513          	mv	a0,a3
    1f6c:	00008067          	ret
    1f70:	00b85663          	bge	a6,a1,1f7c <__ledf2+0xa4>
    1f74:	fe0502e3          	beqz	a0,1f58 <__ledf2+0x80>
    1f78:	00008067          	ret
    1f7c:	fd176ce3          	bltu	a4,a7,1f54 <__ledf2+0x7c>
    1f80:	02e89263          	bne	a7,a4,1fa4 <__ledf2+0xcc>
    1f84:	fc6e68e3          	bltu	t3,t1,1f54 <__ledf2+0x7c>
    1f88:	ffc366e3          	bltu	t1,t3,1f74 <__ledf2+0x9c>
    1f8c:	00000513          	li	a0,0
    1f90:	00008067          	ret
    1f94:	00100513          	li	a0,1
    1f98:	00008067          	ret
    1f9c:	fe0798e3          	bnez	a5,1f8c <__ledf2+0xb4>
    1fa0:	fb5ff06f          	j	1f54 <__ledf2+0x7c>
    1fa4:	fce8e8e3          	bltu	a7,a4,1f74 <__ledf2+0x9c>
    1fa8:	fe5ff06f          	j	1f8c <__ledf2+0xb4>
    1fac:	f7058ee3          	beq	a1,a6,1f28 <__ledf2+0x50>
    1fb0:	f8059ee3          	bnez	a1,1f4c <__ledf2+0x74>
    1fb4:	00000793          	li	a5,0
    1fb8:	f89ff06f          	j	1f40 <__ledf2+0x68>

00001fbc <__muldf3>:
    1fbc:	fd010113          	addi	sp,sp,-48
    1fc0:	01312e23          	sw	s3,28(sp)
    1fc4:	0145d993          	srli	s3,a1,0x14
    1fc8:	02812423          	sw	s0,40(sp)
    1fcc:	02912223          	sw	s1,36(sp)
    1fd0:	01412c23          	sw	s4,24(sp)
    1fd4:	01512a23          	sw	s5,20(sp)
    1fd8:	01712623          	sw	s7,12(sp)
    1fdc:	00c59493          	slli	s1,a1,0xc
    1fe0:	02112623          	sw	ra,44(sp)
    1fe4:	03212023          	sw	s2,32(sp)
    1fe8:	01612823          	sw	s6,16(sp)
    1fec:	7ff9f993          	andi	s3,s3,2047
    1ff0:	00050413          	mv	s0,a0
    1ff4:	00060b93          	mv	s7,a2
    1ff8:	00068a93          	mv	s5,a3
    1ffc:	00c4d493          	srli	s1,s1,0xc
    2000:	01f5da13          	srli	s4,a1,0x1f
    2004:	30098863          	beqz	s3,2314 <_stack_len+0x314>
    2008:	7ff00793          	li	a5,2047
    200c:	36f98663          	beq	s3,a5,2378 <_stack_len+0x378>
    2010:	00349493          	slli	s1,s1,0x3
    2014:	01d55793          	srli	a5,a0,0x1d
    2018:	0097e7b3          	or	a5,a5,s1
    201c:	008004b7          	lui	s1,0x800
    2020:	0097e4b3          	or	s1,a5,s1
    2024:	00351913          	slli	s2,a0,0x3
    2028:	c0198993          	addi	s3,s3,-1023
    202c:	00000b13          	li	s6,0
    2030:	014ad713          	srli	a4,s5,0x14
    2034:	00ca9413          	slli	s0,s5,0xc
    2038:	7ff77713          	andi	a4,a4,2047
    203c:	00c45413          	srli	s0,s0,0xc
    2040:	01fada93          	srli	s5,s5,0x1f
    2044:	36070663          	beqz	a4,23b0 <_stack_len+0x3b0>
    2048:	7ff00793          	li	a5,2047
    204c:	3cf70663          	beq	a4,a5,2418 <_stack_len+0x418>
    2050:	00341413          	slli	s0,s0,0x3
    2054:	01dbd793          	srli	a5,s7,0x1d
    2058:	0087e7b3          	or	a5,a5,s0
    205c:	00800437          	lui	s0,0x800
    2060:	0087e433          	or	s0,a5,s0
    2064:	c0170713          	addi	a4,a4,-1023
    2068:	003b9793          	slli	a5,s7,0x3
    206c:	00000513          	li	a0,0
    2070:	00e989b3          	add	s3,s3,a4
    2074:	002b1713          	slli	a4,s6,0x2
    2078:	00a76733          	or	a4,a4,a0
    207c:	00a00693          	li	a3,10
    2080:	015a4633          	xor	a2,s4,s5
    2084:	00198593          	addi	a1,s3,1
    2088:	40e6c863          	blt	a3,a4,2498 <_stack_len+0x498>
    208c:	00200693          	li	a3,2
    2090:	3ce6c063          	blt	a3,a4,2450 <_stack_len+0x450>
    2094:	fff70713          	addi	a4,a4,-1
    2098:	00100693          	li	a3,1
    209c:	3ce6fc63          	bgeu	a3,a4,2474 <_stack_len+0x474>
    20a0:	00010e37          	lui	t3,0x10
    20a4:	fffe0313          	addi	t1,t3,-1 # ffff <__DTOR_END__+0x7feb>
    20a8:	01095813          	srli	a6,s2,0x10
    20ac:	0107d513          	srli	a0,a5,0x10
    20b0:	00697933          	and	s2,s2,t1
    20b4:	0067feb3          	and	t4,a5,t1
    20b8:	03d907b3          	mul	a5,s2,t4
    20bc:	03d80f33          	mul	t5,a6,t4
    20c0:	0107d713          	srli	a4,a5,0x10
    20c4:	032506b3          	mul	a3,a0,s2
    20c8:	01e686b3          	add	a3,a3,t5
    20cc:	00d70733          	add	a4,a4,a3
    20d0:	02a808b3          	mul	a7,a6,a0
    20d4:	01e77463          	bgeu	a4,t5,20dc <_stack_len+0xdc>
    20d8:	01c888b3          	add	a7,a7,t3
    20dc:	006776b3          	and	a3,a4,t1
    20e0:	0067f7b3          	and	a5,a5,t1
    20e4:	01069693          	slli	a3,a3,0x10
    20e8:	00647e33          	and	t3,s0,t1
    20ec:	00f686b3          	add	a3,a3,a5
    20f0:	01045793          	srli	a5,s0,0x10
    20f4:	01075293          	srli	t0,a4,0x10
    20f8:	03c90f33          	mul	t5,s2,t3
    20fc:	03c80333          	mul	t1,a6,t3
    2100:	010f5713          	srli	a4,t5,0x10
    2104:	03278933          	mul	s2,a5,s2
    2108:	00690933          	add	s2,s2,t1
    210c:	01270733          	add	a4,a4,s2
    2110:	02f80833          	mul	a6,a6,a5
    2114:	00677663          	bgeu	a4,t1,2120 <_stack_len+0x120>
    2118:	00010337          	lui	t1,0x10
    211c:	00680833          	add	a6,a6,t1
    2120:	00010937          	lui	s2,0x10
    2124:	fff90f93          	addi	t6,s2,-1 # ffff <__DTOR_END__+0x7feb>
    2128:	01075313          	srli	t1,a4,0x10
    212c:	01ff7f33          	and	t5,t5,t6
    2130:	01f77733          	and	a4,a4,t6
    2134:	0104d413          	srli	s0,s1,0x10
    2138:	01f4ffb3          	and	t6,s1,t6
    213c:	03fe83b3          	mul	t2,t4,t6
    2140:	01030333          	add	t1,t1,a6
    2144:	01071713          	slli	a4,a4,0x10
    2148:	01e70f33          	add	t5,a4,t5
    214c:	01e282b3          	add	t0,t0,t5
    2150:	03d40833          	mul	a6,s0,t4
    2154:	0103d713          	srli	a4,t2,0x10
    2158:	028504b3          	mul	s1,a0,s0
    215c:	03f50533          	mul	a0,a0,t6
    2160:	01050533          	add	a0,a0,a6
    2164:	00a70733          	add	a4,a4,a0
    2168:	01077463          	bgeu	a4,a6,2170 <_stack_len+0x170>
    216c:	012484b3          	add	s1,s1,s2
    2170:	01075e93          	srli	t4,a4,0x10
    2174:	009e8eb3          	add	t4,t4,s1
    2178:	000104b7          	lui	s1,0x10
    217c:	fff48513          	addi	a0,s1,-1 # ffff <__DTOR_END__+0x7feb>
    2180:	00a77733          	and	a4,a4,a0
    2184:	00a3f3b3          	and	t2,t2,a0
    2188:	01071713          	slli	a4,a4,0x10
    218c:	03c40533          	mul	a0,s0,t3
    2190:	00770733          	add	a4,a4,t2
    2194:	02878833          	mul	a6,a5,s0
    2198:	03fe03b3          	mul	t2,t3,t6
    219c:	03f787b3          	mul	a5,a5,t6
    21a0:	0103df93          	srli	t6,t2,0x10
    21a4:	00a787b3          	add	a5,a5,a0
    21a8:	00ff8fb3          	add	t6,t6,a5
    21ac:	00aff463          	bgeu	t6,a0,21b4 <_stack_len+0x1b4>
    21b0:	00980833          	add	a6,a6,s1
    21b4:	00010537          	lui	a0,0x10
    21b8:	fff50513          	addi	a0,a0,-1 # ffff <__DTOR_END__+0x7feb>
    21bc:	00aff7b3          	and	a5,t6,a0
    21c0:	00a3f3b3          	and	t2,t2,a0
    21c4:	01079793          	slli	a5,a5,0x10
    21c8:	005888b3          	add	a7,a7,t0
    21cc:	007787b3          	add	a5,a5,t2
    21d0:	01e8bf33          	sltu	t5,a7,t5
    21d4:	006787b3          	add	a5,a5,t1
    21d8:	01e782b3          	add	t0,a5,t5
    21dc:	00e888b3          	add	a7,a7,a4
    21e0:	00e8b733          	sltu	a4,a7,a4
    21e4:	01d28533          	add	a0,t0,t4
    21e8:	00e50e33          	add	t3,a0,a4
    21ec:	0067b433          	sltu	s0,a5,t1
    21f0:	01e2b2b3          	sltu	t0,t0,t5
    21f4:	010fd793          	srli	a5,t6,0x10
    21f8:	00ee3733          	sltu	a4,t3,a4
    21fc:	00546433          	or	s0,s0,t0
    2200:	01d53533          	sltu	a0,a0,t4
    2204:	00f40433          	add	s0,s0,a5
    2208:	00e56533          	or	a0,a0,a4
    220c:	00a40433          	add	s0,s0,a0
    2210:	01040433          	add	s0,s0,a6
    2214:	017e5793          	srli	a5,t3,0x17
    2218:	00941413          	slli	s0,s0,0x9
    221c:	00f46433          	or	s0,s0,a5
    2220:	00989793          	slli	a5,a7,0x9
    2224:	00d7e7b3          	or	a5,a5,a3
    2228:	00f037b3          	snez	a5,a5
    222c:	0178d893          	srli	a7,a7,0x17
    2230:	009e1713          	slli	a4,t3,0x9
    2234:	0117e7b3          	or	a5,a5,a7
    2238:	00e7e7b3          	or	a5,a5,a4
    223c:	01000737          	lui	a4,0x1000
    2240:	00e47733          	and	a4,s0,a4
    2244:	28070663          	beqz	a4,24d0 <_stack_len+0x4d0>
    2248:	0017d713          	srli	a4,a5,0x1
    224c:	0017f793          	andi	a5,a5,1
    2250:	00f76733          	or	a4,a4,a5
    2254:	01f41793          	slli	a5,s0,0x1f
    2258:	00f767b3          	or	a5,a4,a5
    225c:	00145413          	srli	s0,s0,0x1
    2260:	3ff58693          	addi	a3,a1,1023 # 8003ff <_stack_start+0x6f83ff>
    2264:	26d05a63          	blez	a3,24d8 <_stack_len+0x4d8>
    2268:	0077f713          	andi	a4,a5,7
    226c:	02070063          	beqz	a4,228c <_stack_len+0x28c>
    2270:	00f7f713          	andi	a4,a5,15
    2274:	00400513          	li	a0,4
    2278:	00a70a63          	beq	a4,a0,228c <_stack_len+0x28c>
    227c:	00478713          	addi	a4,a5,4
    2280:	00f737b3          	sltu	a5,a4,a5
    2284:	00f40433          	add	s0,s0,a5
    2288:	00070793          	mv	a5,a4
    228c:	01000737          	lui	a4,0x1000
    2290:	00e47733          	and	a4,s0,a4
    2294:	00070a63          	beqz	a4,22a8 <_stack_len+0x2a8>
    2298:	ff000737          	lui	a4,0xff000
    229c:	fff70713          	addi	a4,a4,-1 # feffffff <_stack_start+0xfeef7fff>
    22a0:	00e47433          	and	s0,s0,a4
    22a4:	40058693          	addi	a3,a1,1024
    22a8:	7fe00713          	li	a4,2046
    22ac:	2ed74e63          	blt	a4,a3,25a8 <_stack_len+0x5a8>
    22b0:	01d41713          	slli	a4,s0,0x1d
    22b4:	0037d793          	srli	a5,a5,0x3
    22b8:	00f76733          	or	a4,a4,a5
    22bc:	00345413          	srli	s0,s0,0x3
    22c0:	7ff007b7          	lui	a5,0x7ff00
    22c4:	01469693          	slli	a3,a3,0x14
    22c8:	00c41413          	slli	s0,s0,0xc
    22cc:	00f6f6b3          	and	a3,a3,a5
    22d0:	00c45413          	srli	s0,s0,0xc
    22d4:	02c12083          	lw	ra,44(sp)
    22d8:	0086e6b3          	or	a3,a3,s0
    22dc:	02812403          	lw	s0,40(sp)
    22e0:	01f61613          	slli	a2,a2,0x1f
    22e4:	00c6e7b3          	or	a5,a3,a2
    22e8:	02412483          	lw	s1,36(sp)
    22ec:	02012903          	lw	s2,32(sp)
    22f0:	01c12983          	lw	s3,28(sp)
    22f4:	01812a03          	lw	s4,24(sp)
    22f8:	01412a83          	lw	s5,20(sp)
    22fc:	01012b03          	lw	s6,16(sp)
    2300:	00c12b83          	lw	s7,12(sp)
    2304:	00070513          	mv	a0,a4
    2308:	00078593          	mv	a1,a5
    230c:	03010113          	addi	sp,sp,48
    2310:	00008067          	ret
    2314:	00a4e933          	or	s2,s1,a0
    2318:	06090c63          	beqz	s2,2390 <_stack_len+0x390>
    231c:	04048063          	beqz	s1,235c <_stack_len+0x35c>
    2320:	00048513          	mv	a0,s1
    2324:	b1cff0ef          	jal	ra,1640 <__clzsi2>
    2328:	ff550713          	addi	a4,a0,-11
    232c:	01c00793          	li	a5,28
    2330:	02e7cc63          	blt	a5,a4,2368 <_stack_len+0x368>
    2334:	01d00793          	li	a5,29
    2338:	ff850913          	addi	s2,a0,-8
    233c:	40e787b3          	sub	a5,a5,a4
    2340:	012494b3          	sll	s1,s1,s2
    2344:	00f457b3          	srl	a5,s0,a5
    2348:	0097e4b3          	or	s1,a5,s1
    234c:	01241933          	sll	s2,s0,s2
    2350:	c0d00993          	li	s3,-1011
    2354:	40a989b3          	sub	s3,s3,a0
    2358:	cd5ff06f          	j	202c <_stack_len+0x2c>
    235c:	ae4ff0ef          	jal	ra,1640 <__clzsi2>
    2360:	02050513          	addi	a0,a0,32
    2364:	fc5ff06f          	j	2328 <_stack_len+0x328>
    2368:	fd850493          	addi	s1,a0,-40
    236c:	009414b3          	sll	s1,s0,s1
    2370:	00000913          	li	s2,0
    2374:	fddff06f          	j	2350 <_stack_len+0x350>
    2378:	00a4e933          	or	s2,s1,a0
    237c:	02090263          	beqz	s2,23a0 <_stack_len+0x3a0>
    2380:	00050913          	mv	s2,a0
    2384:	7ff00993          	li	s3,2047
    2388:	00300b13          	li	s6,3
    238c:	ca5ff06f          	j	2030 <_stack_len+0x30>
    2390:	00000493          	li	s1,0
    2394:	00000993          	li	s3,0
    2398:	00100b13          	li	s6,1
    239c:	c95ff06f          	j	2030 <_stack_len+0x30>
    23a0:	00000493          	li	s1,0
    23a4:	7ff00993          	li	s3,2047
    23a8:	00200b13          	li	s6,2
    23ac:	c85ff06f          	j	2030 <_stack_len+0x30>
    23b0:	017467b3          	or	a5,s0,s7
    23b4:	06078e63          	beqz	a5,2430 <_stack_len+0x430>
    23b8:	04040063          	beqz	s0,23f8 <_stack_len+0x3f8>
    23bc:	00040513          	mv	a0,s0
    23c0:	a80ff0ef          	jal	ra,1640 <__clzsi2>
    23c4:	ff550693          	addi	a3,a0,-11
    23c8:	01c00793          	li	a5,28
    23cc:	02d7ce63          	blt	a5,a3,2408 <_stack_len+0x408>
    23d0:	01d00713          	li	a4,29
    23d4:	ff850793          	addi	a5,a0,-8
    23d8:	40d70733          	sub	a4,a4,a3
    23dc:	00f41433          	sll	s0,s0,a5
    23e0:	00ebd733          	srl	a4,s7,a4
    23e4:	00876433          	or	s0,a4,s0
    23e8:	00fb97b3          	sll	a5,s7,a5
    23ec:	c0d00713          	li	a4,-1011
    23f0:	40a70733          	sub	a4,a4,a0
    23f4:	c79ff06f          	j	206c <_stack_len+0x6c>
    23f8:	000b8513          	mv	a0,s7
    23fc:	a44ff0ef          	jal	ra,1640 <__clzsi2>
    2400:	02050513          	addi	a0,a0,32
    2404:	fc1ff06f          	j	23c4 <_stack_len+0x3c4>
    2408:	fd850413          	addi	s0,a0,-40
    240c:	008b9433          	sll	s0,s7,s0
    2410:	00000793          	li	a5,0
    2414:	fd9ff06f          	j	23ec <_stack_len+0x3ec>
    2418:	017467b3          	or	a5,s0,s7
    241c:	02078263          	beqz	a5,2440 <_stack_len+0x440>
    2420:	000b8793          	mv	a5,s7
    2424:	7ff00713          	li	a4,2047
    2428:	00300513          	li	a0,3
    242c:	c45ff06f          	j	2070 <_stack_len+0x70>
    2430:	00000413          	li	s0,0
    2434:	00000713          	li	a4,0
    2438:	00100513          	li	a0,1
    243c:	c35ff06f          	j	2070 <_stack_len+0x70>
    2440:	00000413          	li	s0,0
    2444:	7ff00713          	li	a4,2047
    2448:	00200513          	li	a0,2
    244c:	c25ff06f          	j	2070 <_stack_len+0x70>
    2450:	00100693          	li	a3,1
    2454:	00e696b3          	sll	a3,a3,a4
    2458:	5306f713          	andi	a4,a3,1328
    245c:	04071863          	bnez	a4,24ac <_stack_len+0x4ac>
    2460:	2406f813          	andi	a6,a3,576
    2464:	12081463          	bnez	a6,258c <_stack_len+0x58c>
    2468:	0886f693          	andi	a3,a3,136
    246c:	c2068ae3          	beqz	a3,20a0 <_stack_len+0xa0>
    2470:	000a8613          	mv	a2,s5
    2474:	00200713          	li	a4,2
    2478:	12e50863          	beq	a0,a4,25a8 <_stack_len+0x5a8>
    247c:	00300713          	li	a4,3
    2480:	10e50e63          	beq	a0,a4,259c <_stack_len+0x59c>
    2484:	00100713          	li	a4,1
    2488:	dce51ce3          	bne	a0,a4,2260 <_stack_len+0x260>
    248c:	00000413          	li	s0,0
    2490:	00000713          	li	a4,0
    2494:	0bc0006f          	j	2550 <_stack_len+0x550>
    2498:	00f00693          	li	a3,15
    249c:	02d70063          	beq	a4,a3,24bc <_stack_len+0x4bc>
    24a0:	00b00693          	li	a3,11
    24a4:	fcd706e3          	beq	a4,a3,2470 <_stack_len+0x470>
    24a8:	000a0613          	mv	a2,s4
    24ac:	00048413          	mv	s0,s1
    24b0:	00090793          	mv	a5,s2
    24b4:	000b0513          	mv	a0,s6
    24b8:	fbdff06f          	j	2474 <_stack_len+0x474>
    24bc:	00080437          	lui	s0,0x80
    24c0:	00000793          	li	a5,0
    24c4:	00000613          	li	a2,0
    24c8:	00300513          	li	a0,3
    24cc:	fb1ff06f          	j	247c <_stack_len+0x47c>
    24d0:	00098593          	mv	a1,s3
    24d4:	d8dff06f          	j	2260 <_stack_len+0x260>
    24d8:	00100513          	li	a0,1
    24dc:	40d50533          	sub	a0,a0,a3
    24e0:	03800713          	li	a4,56
    24e4:	faa744e3          	blt	a4,a0,248c <_stack_len+0x48c>
    24e8:	01f00713          	li	a4,31
    24ec:	06a74663          	blt	a4,a0,2558 <_stack_len+0x558>
    24f0:	41e58593          	addi	a1,a1,1054
    24f4:	00b41733          	sll	a4,s0,a1
    24f8:	00a7d6b3          	srl	a3,a5,a0
    24fc:	00b795b3          	sll	a1,a5,a1
    2500:	00d76733          	or	a4,a4,a3
    2504:	00b035b3          	snez	a1,a1
    2508:	00b767b3          	or	a5,a4,a1
    250c:	00a45433          	srl	s0,s0,a0
    2510:	0077f713          	andi	a4,a5,7
    2514:	02070063          	beqz	a4,2534 <_stack_len+0x534>
    2518:	00f7f713          	andi	a4,a5,15
    251c:	00400693          	li	a3,4
    2520:	00d70a63          	beq	a4,a3,2534 <_stack_len+0x534>
    2524:	00478713          	addi	a4,a5,4 # 7ff00004 <_stack_start+0x7fdf8004>
    2528:	00f737b3          	sltu	a5,a4,a5
    252c:	00f40433          	add	s0,s0,a5
    2530:	00070793          	mv	a5,a4
    2534:	00800737          	lui	a4,0x800
    2538:	00e47733          	and	a4,s0,a4
    253c:	06071e63          	bnez	a4,25b8 <_stack_len+0x5b8>
    2540:	01d41713          	slli	a4,s0,0x1d
    2544:	0037d793          	srli	a5,a5,0x3
    2548:	00f76733          	or	a4,a4,a5
    254c:	00345413          	srli	s0,s0,0x3
    2550:	00000693          	li	a3,0
    2554:	d6dff06f          	j	22c0 <_stack_len+0x2c0>
    2558:	fe100713          	li	a4,-31
    255c:	40d70733          	sub	a4,a4,a3
    2560:	02000813          	li	a6,32
    2564:	00e45733          	srl	a4,s0,a4
    2568:	00000693          	li	a3,0
    256c:	01050663          	beq	a0,a6,2578 <_stack_len+0x578>
    2570:	43e58593          	addi	a1,a1,1086
    2574:	00b416b3          	sll	a3,s0,a1
    2578:	00f6e6b3          	or	a3,a3,a5
    257c:	00d036b3          	snez	a3,a3
    2580:	00d767b3          	or	a5,a4,a3
    2584:	00000413          	li	s0,0
    2588:	f89ff06f          	j	2510 <_stack_len+0x510>
    258c:	00080437          	lui	s0,0x80
    2590:	7ff00693          	li	a3,2047
    2594:	00000613          	li	a2,0
    2598:	d29ff06f          	j	22c0 <_stack_len+0x2c0>
    259c:	00080437          	lui	s0,0x80
    25a0:	00000713          	li	a4,0
    25a4:	fedff06f          	j	2590 <_stack_len+0x590>
    25a8:	00000413          	li	s0,0
    25ac:	00000713          	li	a4,0
    25b0:	7ff00693          	li	a3,2047
    25b4:	d0dff06f          	j	22c0 <_stack_len+0x2c0>
    25b8:	00000413          	li	s0,0
    25bc:	00000713          	li	a4,0
    25c0:	00100693          	li	a3,1
    25c4:	cfdff06f          	j	22c0 <_stack_len+0x2c0>

000025c8 <__fixdfsi>:
    25c8:	0145d713          	srli	a4,a1,0x14
    25cc:	001006b7          	lui	a3,0x100
    25d0:	fff68793          	addi	a5,a3,-1 # fffff <__DTOR_END__+0xf7feb>
    25d4:	7ff77713          	andi	a4,a4,2047
    25d8:	3fe00613          	li	a2,1022
    25dc:	00b7f7b3          	and	a5,a5,a1
    25e0:	01f5d593          	srli	a1,a1,0x1f
    25e4:	04e65e63          	bge	a2,a4,2640 <__fixdfsi+0x78>
    25e8:	41d00613          	li	a2,1053
    25ec:	00e65a63          	bge	a2,a4,2600 <__fixdfsi+0x38>
    25f0:	80000537          	lui	a0,0x80000
    25f4:	fff54513          	not	a0,a0
    25f8:	00a58533          	add	a0,a1,a0
    25fc:	00008067          	ret
    2600:	00d7e7b3          	or	a5,a5,a3
    2604:	43300693          	li	a3,1075
    2608:	40e686b3          	sub	a3,a3,a4
    260c:	01f00613          	li	a2,31
    2610:	02d64063          	blt	a2,a3,2630 <__fixdfsi+0x68>
    2614:	bed70713          	addi	a4,a4,-1043 # 7ffbed <_stack_start+0x6f7bed>
    2618:	00e797b3          	sll	a5,a5,a4
    261c:	00d55533          	srl	a0,a0,a3
    2620:	00a7e533          	or	a0,a5,a0
    2624:	02058063          	beqz	a1,2644 <__fixdfsi+0x7c>
    2628:	40a00533          	neg	a0,a0
    262c:	00008067          	ret
    2630:	41300693          	li	a3,1043
    2634:	40e68733          	sub	a4,a3,a4
    2638:	00e7d533          	srl	a0,a5,a4
    263c:	fe9ff06f          	j	2624 <__fixdfsi+0x5c>
    2640:	00000513          	li	a0,0
    2644:	00008067          	ret

00002648 <__fixunsdfsi>:
    2648:	0145d713          	srli	a4,a1,0x14
    264c:	00100637          	lui	a2,0x100
    2650:	00050693          	mv	a3,a0
    2654:	fff60793          	addi	a5,a2,-1 # fffff <__DTOR_END__+0xf7feb>
    2658:	7ff77713          	andi	a4,a4,2047
    265c:	3fe00513          	li	a0,1022
    2660:	00b7f7b3          	and	a5,a5,a1
    2664:	01f5d593          	srli	a1,a1,0x1f
    2668:	04e55a63          	bge	a0,a4,26bc <__fixunsdfsi+0x74>
    266c:	00000513          	li	a0,0
    2670:	00059863          	bnez	a1,2680 <__fixunsdfsi+0x38>
    2674:	41e00593          	li	a1,1054
    2678:	fff00513          	li	a0,-1
    267c:	00e5d463          	bge	a1,a4,2684 <__fixunsdfsi+0x3c>
    2680:	00008067          	ret
    2684:	00c7e7b3          	or	a5,a5,a2
    2688:	43300613          	li	a2,1075
    268c:	40e60633          	sub	a2,a2,a4
    2690:	01f00593          	li	a1,31
    2694:	00c5cc63          	blt	a1,a2,26ac <__fixunsdfsi+0x64>
    2698:	bed70713          	addi	a4,a4,-1043
    269c:	00e797b3          	sll	a5,a5,a4
    26a0:	00c6d533          	srl	a0,a3,a2
    26a4:	00a7e533          	or	a0,a5,a0
    26a8:	00008067          	ret
    26ac:	41300693          	li	a3,1043
    26b0:	40e68733          	sub	a4,a3,a4
    26b4:	00e7d533          	srl	a0,a5,a4
    26b8:	00008067          	ret
    26bc:	00000513          	li	a0,0
    26c0:	00008067          	ret

000026c4 <__floatunsidf>:
    26c4:	ff010113          	addi	sp,sp,-16
    26c8:	00812423          	sw	s0,8(sp)
    26cc:	00112623          	sw	ra,12(sp)
    26d0:	00050413          	mv	s0,a0
    26d4:	06050263          	beqz	a0,2738 <__floatunsidf+0x74>
    26d8:	f69fe0ef          	jal	ra,1640 <__clzsi2>
    26dc:	41e00713          	li	a4,1054
    26e0:	00a00793          	li	a5,10
    26e4:	40a70733          	sub	a4,a4,a0
    26e8:	04a7c063          	blt	a5,a0,2728 <__floatunsidf+0x64>
    26ec:	00b00793          	li	a5,11
    26f0:	40a787b3          	sub	a5,a5,a0
    26f4:	01550513          	addi	a0,a0,21 # 80000015 <_stack_start+0x7fef8015>
    26f8:	00f457b3          	srl	a5,s0,a5
    26fc:	00a41433          	sll	s0,s0,a0
    2700:	00c12083          	lw	ra,12(sp)
    2704:	00040513          	mv	a0,s0
    2708:	00c79793          	slli	a5,a5,0xc
    270c:	00812403          	lw	s0,8(sp)
    2710:	01471713          	slli	a4,a4,0x14
    2714:	00c7d793          	srli	a5,a5,0xc
    2718:	00f766b3          	or	a3,a4,a5
    271c:	00068593          	mv	a1,a3
    2720:	01010113          	addi	sp,sp,16
    2724:	00008067          	ret
    2728:	ff550513          	addi	a0,a0,-11
    272c:	00a417b3          	sll	a5,s0,a0
    2730:	00000413          	li	s0,0
    2734:	fcdff06f          	j	2700 <__floatunsidf+0x3c>
    2738:	00000793          	li	a5,0
    273c:	00000713          	li	a4,0
    2740:	fc1ff06f          	j	2700 <__floatunsidf+0x3c>

00002744 <memcpy>:
    2744:	00b547b3          	xor	a5,a0,a1
    2748:	0037f793          	andi	a5,a5,3
    274c:	00c508b3          	add	a7,a0,a2
    2750:	06079663          	bnez	a5,27bc <memcpy+0x78>
    2754:	00300793          	li	a5,3
    2758:	06c7f263          	bgeu	a5,a2,27bc <memcpy+0x78>
    275c:	00357793          	andi	a5,a0,3
    2760:	00050713          	mv	a4,a0
    2764:	0c079a63          	bnez	a5,2838 <memcpy+0xf4>
    2768:	ffc8f613          	andi	a2,a7,-4
    276c:	40e606b3          	sub	a3,a2,a4
    2770:	02000793          	li	a5,32
    2774:	02000293          	li	t0,32
    2778:	06d7c263          	blt	a5,a3,27dc <memcpy+0x98>
    277c:	00058693          	mv	a3,a1
    2780:	00070793          	mv	a5,a4
    2784:	02c77863          	bgeu	a4,a2,27b4 <memcpy+0x70>
    2788:	0006a803          	lw	a6,0(a3)
    278c:	00478793          	addi	a5,a5,4
    2790:	00468693          	addi	a3,a3,4
    2794:	ff07ae23          	sw	a6,-4(a5)
    2798:	fec7e8e3          	bltu	a5,a2,2788 <memcpy+0x44>
    279c:	fff60793          	addi	a5,a2,-1
    27a0:	40e787b3          	sub	a5,a5,a4
    27a4:	ffc7f793          	andi	a5,a5,-4
    27a8:	00478793          	addi	a5,a5,4
    27ac:	00f70733          	add	a4,a4,a5
    27b0:	00f585b3          	add	a1,a1,a5
    27b4:	01176863          	bltu	a4,a7,27c4 <memcpy+0x80>
    27b8:	00008067          	ret
    27bc:	00050713          	mv	a4,a0
    27c0:	ff157ce3          	bgeu	a0,a7,27b8 <memcpy+0x74>
    27c4:	0005c783          	lbu	a5,0(a1)
    27c8:	00170713          	addi	a4,a4,1
    27cc:	00158593          	addi	a1,a1,1
    27d0:	fef70fa3          	sb	a5,-1(a4)
    27d4:	ff1768e3          	bltu	a4,a7,27c4 <memcpy+0x80>
    27d8:	00008067          	ret
    27dc:	0045a683          	lw	a3,4(a1)
    27e0:	01c5a783          	lw	a5,28(a1)
    27e4:	0005af83          	lw	t6,0(a1)
    27e8:	0085af03          	lw	t5,8(a1)
    27ec:	00c5ae83          	lw	t4,12(a1)
    27f0:	0105ae03          	lw	t3,16(a1)
    27f4:	0145a303          	lw	t1,20(a1)
    27f8:	0185a803          	lw	a6,24(a1)
    27fc:	00d72223          	sw	a3,4(a4)
    2800:	0205a683          	lw	a3,32(a1)
    2804:	01f72023          	sw	t6,0(a4)
    2808:	01e72423          	sw	t5,8(a4)
    280c:	01d72623          	sw	t4,12(a4)
    2810:	01c72823          	sw	t3,16(a4)
    2814:	00672a23          	sw	t1,20(a4)
    2818:	01072c23          	sw	a6,24(a4)
    281c:	00f72e23          	sw	a5,28(a4)
    2820:	02470713          	addi	a4,a4,36
    2824:	40e607b3          	sub	a5,a2,a4
    2828:	fed72e23          	sw	a3,-4(a4)
    282c:	02458593          	addi	a1,a1,36
    2830:	faf2c6e3          	blt	t0,a5,27dc <memcpy+0x98>
    2834:	f49ff06f          	j	277c <memcpy+0x38>
    2838:	0005c683          	lbu	a3,0(a1)
    283c:	00170713          	addi	a4,a4,1
    2840:	00377793          	andi	a5,a4,3
    2844:	fed70fa3          	sb	a3,-1(a4)
    2848:	00158593          	addi	a1,a1,1
    284c:	f0078ee3          	beqz	a5,2768 <memcpy+0x24>
    2850:	0005c683          	lbu	a3,0(a1)
    2854:	00170713          	addi	a4,a4,1
    2858:	00377793          	andi	a5,a4,3
    285c:	fed70fa3          	sb	a3,-1(a4)
    2860:	00158593          	addi	a1,a1,1
    2864:	fc079ae3          	bnez	a5,2838 <memcpy+0xf4>
    2868:	f01ff06f          	j	2768 <memcpy+0x24>

0000286c <memmove>:
    286c:	02a5f663          	bgeu	a1,a0,2898 <memmove+0x2c>
    2870:	00c587b3          	add	a5,a1,a2
    2874:	02f57263          	bgeu	a0,a5,2898 <memmove+0x2c>
    2878:	00c50733          	add	a4,a0,a2
    287c:	0e060a63          	beqz	a2,2970 <memmove+0x104>
    2880:	fff7c683          	lbu	a3,-1(a5)
    2884:	fff78793          	addi	a5,a5,-1
    2888:	fff70713          	addi	a4,a4,-1
    288c:	00d70023          	sb	a3,0(a4)
    2890:	fef598e3          	bne	a1,a5,2880 <memmove+0x14>
    2894:	00008067          	ret
    2898:	00f00793          	li	a5,15
    289c:	02c7e863          	bltu	a5,a2,28cc <memmove+0x60>
    28a0:	00050793          	mv	a5,a0
    28a4:	fff60693          	addi	a3,a2,-1
    28a8:	0c060c63          	beqz	a2,2980 <memmove+0x114>
    28ac:	00168693          	addi	a3,a3,1
    28b0:	00d786b3          	add	a3,a5,a3
    28b4:	0005c703          	lbu	a4,0(a1)
    28b8:	00178793          	addi	a5,a5,1
    28bc:	00158593          	addi	a1,a1,1
    28c0:	fee78fa3          	sb	a4,-1(a5)
    28c4:	fed798e3          	bne	a5,a3,28b4 <memmove+0x48>
    28c8:	00008067          	ret
    28cc:	00b567b3          	or	a5,a0,a1
    28d0:	0037f793          	andi	a5,a5,3
    28d4:	0a079063          	bnez	a5,2974 <memmove+0x108>
    28d8:	ff060893          	addi	a7,a2,-16
    28dc:	ff08f893          	andi	a7,a7,-16
    28e0:	01088893          	addi	a7,a7,16 # 10010 <__DTOR_END__+0x7ffc>
    28e4:	01150833          	add	a6,a0,a7
    28e8:	00058713          	mv	a4,a1
    28ec:	00050793          	mv	a5,a0
    28f0:	00072683          	lw	a3,0(a4)
    28f4:	01070713          	addi	a4,a4,16
    28f8:	01078793          	addi	a5,a5,16
    28fc:	fed7a823          	sw	a3,-16(a5)
    2900:	ff472683          	lw	a3,-12(a4)
    2904:	fed7aa23          	sw	a3,-12(a5)
    2908:	ff872683          	lw	a3,-8(a4)
    290c:	fed7ac23          	sw	a3,-8(a5)
    2910:	ffc72683          	lw	a3,-4(a4)
    2914:	fed7ae23          	sw	a3,-4(a5)
    2918:	fcf81ce3          	bne	a6,a5,28f0 <memmove+0x84>
    291c:	00c67713          	andi	a4,a2,12
    2920:	011585b3          	add	a1,a1,a7
    2924:	00f67813          	andi	a6,a2,15
    2928:	04070e63          	beqz	a4,2984 <memmove+0x118>
    292c:	00058713          	mv	a4,a1
    2930:	00078893          	mv	a7,a5
    2934:	00300e13          	li	t3,3
    2938:	00072303          	lw	t1,0(a4)
    293c:	00470713          	addi	a4,a4,4
    2940:	40e806b3          	sub	a3,a6,a4
    2944:	0068a023          	sw	t1,0(a7)
    2948:	00d586b3          	add	a3,a1,a3
    294c:	00488893          	addi	a7,a7,4
    2950:	fede64e3          	bltu	t3,a3,2938 <memmove+0xcc>
    2954:	ffc80713          	addi	a4,a6,-4
    2958:	ffc77713          	andi	a4,a4,-4
    295c:	00470713          	addi	a4,a4,4
    2960:	00367613          	andi	a2,a2,3
    2964:	00e787b3          	add	a5,a5,a4
    2968:	00e585b3          	add	a1,a1,a4
    296c:	f39ff06f          	j	28a4 <memmove+0x38>
    2970:	00008067          	ret
    2974:	fff60693          	addi	a3,a2,-1
    2978:	00050793          	mv	a5,a0
    297c:	f31ff06f          	j	28ac <memmove+0x40>
    2980:	00008067          	ret
    2984:	00080613          	mv	a2,a6
    2988:	f1dff06f          	j	28a4 <memmove+0x38>

0000298c <memset>:
    298c:	00f00313          	li	t1,15
    2990:	00050713          	mv	a4,a0
    2994:	02c37e63          	bgeu	t1,a2,29d0 <memset+0x44>
    2998:	00f77793          	andi	a5,a4,15
    299c:	0a079063          	bnez	a5,2a3c <memset+0xb0>
    29a0:	08059263          	bnez	a1,2a24 <memset+0x98>
    29a4:	ff067693          	andi	a3,a2,-16
    29a8:	00f67613          	andi	a2,a2,15
    29ac:	00e686b3          	add	a3,a3,a4
    29b0:	00b72023          	sw	a1,0(a4)
    29b4:	00b72223          	sw	a1,4(a4)
    29b8:	00b72423          	sw	a1,8(a4)
    29bc:	00b72623          	sw	a1,12(a4)
    29c0:	01070713          	addi	a4,a4,16
    29c4:	fed766e3          	bltu	a4,a3,29b0 <memset+0x24>
    29c8:	00061463          	bnez	a2,29d0 <memset+0x44>
    29cc:	00008067          	ret
    29d0:	40c306b3          	sub	a3,t1,a2
    29d4:	00269693          	slli	a3,a3,0x2
    29d8:	00000297          	auipc	t0,0x0
    29dc:	005686b3          	add	a3,a3,t0
    29e0:	00c68067          	jr	12(a3)
    29e4:	00b70723          	sb	a1,14(a4)
    29e8:	00b706a3          	sb	a1,13(a4)
    29ec:	00b70623          	sb	a1,12(a4)
    29f0:	00b705a3          	sb	a1,11(a4)
    29f4:	00b70523          	sb	a1,10(a4)
    29f8:	00b704a3          	sb	a1,9(a4)
    29fc:	00b70423          	sb	a1,8(a4)
    2a00:	00b703a3          	sb	a1,7(a4)
    2a04:	00b70323          	sb	a1,6(a4)
    2a08:	00b702a3          	sb	a1,5(a4)
    2a0c:	00b70223          	sb	a1,4(a4)
    2a10:	00b701a3          	sb	a1,3(a4)
    2a14:	00b70123          	sb	a1,2(a4)
    2a18:	00b700a3          	sb	a1,1(a4)
    2a1c:	00b70023          	sb	a1,0(a4)
    2a20:	00008067          	ret
    2a24:	0ff5f593          	zext.b	a1,a1
    2a28:	00859693          	slli	a3,a1,0x8
    2a2c:	00d5e5b3          	or	a1,a1,a3
    2a30:	01059693          	slli	a3,a1,0x10
    2a34:	00d5e5b3          	or	a1,a1,a3
    2a38:	f6dff06f          	j	29a4 <memset+0x18>
    2a3c:	00279693          	slli	a3,a5,0x2
    2a40:	00000297          	auipc	t0,0x0
    2a44:	005686b3          	add	a3,a3,t0
    2a48:	00008293          	mv	t0,ra
    2a4c:	fa0680e7          	jalr	-96(a3)
    2a50:	00028093          	mv	ra,t0
    2a54:	ff078793          	addi	a5,a5,-16
    2a58:	40f70733          	sub	a4,a4,a5
    2a5c:	00f60633          	add	a2,a2,a5
    2a60:	f6c378e3          	bgeu	t1,a2,29d0 <memset+0x44>
    2a64:	f3dff06f          	j	29a0 <memset+0x14>

00002a68 <uart_init_0>:
    2a68:	001017b7          	lui	a5,0x101
    2a6c:	80000737          	lui	a4,0x80000
    2a70:	90e7a823          	sw	a4,-1776(a5) # 100910 <uart_0>
    2a74:	00008067          	ret

00002a78 <cmp_idx>:
    2a78:	00060a63          	beqz	a2,2a8c <cmp_idx+0x14>
    2a7c:	00251503          	lh	a0,2(a0)
    2a80:	00259583          	lh	a1,2(a1)
    2a84:	40b50533          	sub	a0,a0,a1
    2a88:	00008067          	ret
    2a8c:	00051783          	lh	a5,0(a0)
    2a90:	01079713          	slli	a4,a5,0x10
    2a94:	01075293          	srli	t0,a4,0x10
    2a98:	f007f313          	andi	t1,a5,-256
    2a9c:	0082d393          	srli	t2,t0,0x8
    2aa0:	00736633          	or	a2,t1,t2
    2aa4:	00c51023          	sh	a2,0(a0)
    2aa8:	00059683          	lh	a3,0(a1)
    2aac:	00251503          	lh	a0,2(a0)
    2ab0:	01069813          	slli	a6,a3,0x10
    2ab4:	01085893          	srli	a7,a6,0x10
    2ab8:	f006fe13          	andi	t3,a3,-256
    2abc:	0088de93          	srli	t4,a7,0x8
    2ac0:	01de6f33          	or	t5,t3,t4
    2ac4:	01e59023          	sh	t5,0(a1)
    2ac8:	00259583          	lh	a1,2(a1)
    2acc:	40b50533          	sub	a0,a0,a1
    2ad0:	00008067          	ret

00002ad4 <core_list_mergesort>:
    2ad4:	fd010113          	addi	sp,sp,-48
    2ad8:	02812423          	sw	s0,40(sp)
    2adc:	01612823          	sw	s6,16(sp)
    2ae0:	01712623          	sw	s7,12(sp)
    2ae4:	01912223          	sw	s9,4(sp)
    2ae8:	01a12023          	sw	s10,0(sp)
    2aec:	02112623          	sw	ra,44(sp)
    2af0:	02912223          	sw	s1,36(sp)
    2af4:	03212023          	sw	s2,32(sp)
    2af8:	01312e23          	sw	s3,28(sp)
    2afc:	01412c23          	sw	s4,24(sp)
    2b00:	01512a23          	sw	s5,20(sp)
    2b04:	01812423          	sw	s8,8(sp)
    2b08:	00050413          	mv	s0,a0
    2b0c:	00058b13          	mv	s6,a1
    2b10:	00060d13          	mv	s10,a2
    2b14:	00100b93          	li	s7,1
    2b18:	00100c93          	li	s9,1
    2b1c:	1a040263          	beqz	s0,2cc0 <core_list_mergesort+0x1ec>
    2b20:	00000c13          	li	s8,0
    2b24:	00000493          	li	s1,0
    2b28:	00000a93          	li	s5,0
    2b2c:	007bf713          	andi	a4,s7,7
    2b30:	001c0c13          	addi	s8,s8,1
    2b34:	00040793          	mv	a5,s0
    2b38:	00000913          	li	s2,0
    2b3c:	08070663          	beqz	a4,2bc8 <core_list_mergesort+0xf4>
    2b40:	00100693          	li	a3,1
    2b44:	06d70a63          	beq	a4,a3,2bb8 <core_list_mergesort+0xe4>
    2b48:	00200093          	li	ra,2
    2b4c:	06170063          	beq	a4,ra,2bac <core_list_mergesort+0xd8>
    2b50:	00300293          	li	t0,3
    2b54:	04570663          	beq	a4,t0,2ba0 <core_list_mergesort+0xcc>
    2b58:	00400313          	li	t1,4
    2b5c:	02670c63          	beq	a4,t1,2b94 <core_list_mergesort+0xc0>
    2b60:	00500393          	li	t2,5
    2b64:	02770263          	beq	a4,t2,2b88 <core_list_mergesort+0xb4>
    2b68:	00600513          	li	a0,6
    2b6c:	00a70863          	beq	a4,a0,2b7c <core_list_mergesort+0xa8>
    2b70:	00042783          	lw	a5,0(s0) # 80000 <__DTOR_END__+0x77fec>
    2b74:	00100913          	li	s2,1
    2b78:	0a078a63          	beqz	a5,2c2c <core_list_mergesort+0x158>
    2b7c:	0007a783          	lw	a5,0(a5)
    2b80:	00190913          	addi	s2,s2,1
    2b84:	0a078463          	beqz	a5,2c2c <core_list_mergesort+0x158>
    2b88:	0007a783          	lw	a5,0(a5)
    2b8c:	00190913          	addi	s2,s2,1
    2b90:	08078e63          	beqz	a5,2c2c <core_list_mergesort+0x158>
    2b94:	0007a783          	lw	a5,0(a5)
    2b98:	00190913          	addi	s2,s2,1
    2b9c:	08078863          	beqz	a5,2c2c <core_list_mergesort+0x158>
    2ba0:	0007a783          	lw	a5,0(a5)
    2ba4:	00190913          	addi	s2,s2,1
    2ba8:	08078263          	beqz	a5,2c2c <core_list_mergesort+0x158>
    2bac:	0007a783          	lw	a5,0(a5)
    2bb0:	00190913          	addi	s2,s2,1
    2bb4:	06078c63          	beqz	a5,2c2c <core_list_mergesort+0x158>
    2bb8:	0007a783          	lw	a5,0(a5)
    2bbc:	00190913          	addi	s2,s2,1
    2bc0:	06078663          	beqz	a5,2c2c <core_list_mergesort+0x158>
    2bc4:	072b8463          	beq	s7,s2,2c2c <core_list_mergesort+0x158>
    2bc8:	0007a783          	lw	a5,0(a5)
    2bcc:	00190913          	addi	s2,s2,1
    2bd0:	00090593          	mv	a1,s2
    2bd4:	04078c63          	beqz	a5,2c2c <core_list_mergesort+0x158>
    2bd8:	0007a783          	lw	a5,0(a5)
    2bdc:	00190913          	addi	s2,s2,1
    2be0:	04078663          	beqz	a5,2c2c <core_list_mergesort+0x158>
    2be4:	0007a783          	lw	a5,0(a5)
    2be8:	00258913          	addi	s2,a1,2
    2bec:	04078063          	beqz	a5,2c2c <core_list_mergesort+0x158>
    2bf0:	0007a783          	lw	a5,0(a5)
    2bf4:	00358913          	addi	s2,a1,3
    2bf8:	02078a63          	beqz	a5,2c2c <core_list_mergesort+0x158>
    2bfc:	0007a783          	lw	a5,0(a5)
    2c00:	00458913          	addi	s2,a1,4
    2c04:	02078463          	beqz	a5,2c2c <core_list_mergesort+0x158>
    2c08:	0007a783          	lw	a5,0(a5)
    2c0c:	00558913          	addi	s2,a1,5
    2c10:	00078e63          	beqz	a5,2c2c <core_list_mergesort+0x158>
    2c14:	0007a783          	lw	a5,0(a5)
    2c18:	00658913          	addi	s2,a1,6
    2c1c:	00078863          	beqz	a5,2c2c <core_list_mergesort+0x158>
    2c20:	0007a783          	lw	a5,0(a5)
    2c24:	00758913          	addi	s2,a1,7
    2c28:	f8079ee3          	bnez	a5,2bc4 <core_list_mergesort+0xf0>
    2c2c:	00040a13          	mv	s4,s0
    2c30:	000b8993          	mv	s3,s7
    2c34:	00078413          	mv	s0,a5
    2c38:	02090e63          	beqz	s2,2c74 <core_list_mergesort+0x1a0>
    2c3c:	04098e63          	beqz	s3,2c98 <core_list_mergesort+0x1c4>
    2c40:	04040c63          	beqz	s0,2c98 <core_list_mergesort+0x1c4>
    2c44:	00442583          	lw	a1,4(s0)
    2c48:	004a2503          	lw	a0,4(s4)
    2c4c:	000d0613          	mv	a2,s10
    2c50:	000b00e7          	jalr	s6
    2c54:	04a05263          	blez	a0,2c98 <core_list_mergesort+0x1c4>
    2c58:	00040613          	mv	a2,s0
    2c5c:	00042403          	lw	s0,0(s0)
    2c60:	fff98993          	addi	s3,s3,-1
    2c64:	02048463          	beqz	s1,2c8c <core_list_mergesort+0x1b8>
    2c68:	00c4a023          	sw	a2,0(s1)
    2c6c:	00060493          	mv	s1,a2
    2c70:	fc0916e3          	bnez	s2,2c3c <core_list_mergesort+0x168>
    2c74:	02098a63          	beqz	s3,2ca8 <core_list_mergesort+0x1d4>
    2c78:	02040a63          	beqz	s0,2cac <core_list_mergesort+0x1d8>
    2c7c:	00040613          	mv	a2,s0
    2c80:	fff98993          	addi	s3,s3,-1
    2c84:	00042403          	lw	s0,0(s0)
    2c88:	fe0490e3          	bnez	s1,2c68 <core_list_mergesort+0x194>
    2c8c:	00060a93          	mv	s5,a2
    2c90:	00060493          	mv	s1,a2
    2c94:	fddff06f          	j	2c70 <core_list_mergesort+0x19c>
    2c98:	000a0613          	mv	a2,s4
    2c9c:	fff90913          	addi	s2,s2,-1
    2ca0:	000a2a03          	lw	s4,0(s4)
    2ca4:	fc1ff06f          	j	2c64 <core_list_mergesort+0x190>
    2ca8:	e80412e3          	bnez	s0,2b2c <core_list_mergesort+0x58>
    2cac:	0004a023          	sw	zero,0(s1)
    2cb0:	019c0c63          	beq	s8,s9,2cc8 <core_list_mergesort+0x1f4>
    2cb4:	001b9b93          	slli	s7,s7,0x1
    2cb8:	000a8413          	mv	s0,s5
    2cbc:	e61ff06f          	j	2b1c <core_list_mergesort+0x48>
    2cc0:	00002023          	sw	zero,0(zero) # 0 <__DYNAMIC>
    2cc4:	00100073          	ebreak
    2cc8:	02c12083          	lw	ra,44(sp)
    2ccc:	02812403          	lw	s0,40(sp)
    2cd0:	02412483          	lw	s1,36(sp)
    2cd4:	02012903          	lw	s2,32(sp)
    2cd8:	01c12983          	lw	s3,28(sp)
    2cdc:	01812a03          	lw	s4,24(sp)
    2ce0:	01012b03          	lw	s6,16(sp)
    2ce4:	00c12b83          	lw	s7,12(sp)
    2ce8:	00812c03          	lw	s8,8(sp)
    2cec:	00412c83          	lw	s9,4(sp)
    2cf0:	00012d03          	lw	s10,0(sp)
    2cf4:	000a8513          	mv	a0,s5
    2cf8:	01412a83          	lw	s5,20(sp)
    2cfc:	03010113          	addi	sp,sp,48
    2d00:	00008067          	ret

00002d04 <crcu16>:
    2d04:	0ff57713          	zext.b	a4,a0
    2d08:	00b746b3          	xor	a3,a4,a1
    2d0c:	0016f293          	andi	t0,a3,1
    2d10:	00050793          	mv	a5,a0
    2d14:	00175613          	srli	a2,a4,0x1
    2d18:	0015d813          	srli	a6,a1,0x1
    2d1c:	00028c63          	beqz	t0,2d34 <crcu16+0x30>
    2d20:	ffffa337          	lui	t1,0xffffa
    2d24:	00130393          	addi	t2,t1,1 # ffffa001 <_stack_start+0xffef2001>
    2d28:	00784533          	xor	a0,a6,t2
    2d2c:	01051593          	slli	a1,a0,0x10
    2d30:	0105d813          	srli	a6,a1,0x10
    2d34:	010648b3          	xor	a7,a2,a6
    2d38:	0018fe13          	andi	t3,a7,1
    2d3c:	00275e93          	srli	t4,a4,0x2
    2d40:	00185313          	srli	t1,a6,0x1
    2d44:	000e0c63          	beqz	t3,2d5c <crcu16+0x58>
    2d48:	ffffaf37          	lui	t5,0xffffa
    2d4c:	001f0f93          	addi	t6,t5,1 # ffffa001 <_stack_start+0xffef2001>
    2d50:	01f346b3          	xor	a3,t1,t6
    2d54:	01069293          	slli	t0,a3,0x10
    2d58:	0102d313          	srli	t1,t0,0x10
    2d5c:	006ec633          	xor	a2,t4,t1
    2d60:	00167393          	andi	t2,a2,1
    2d64:	00375593          	srli	a1,a4,0x3
    2d68:	00135e93          	srli	t4,t1,0x1
    2d6c:	00038c63          	beqz	t2,2d84 <crcu16+0x80>
    2d70:	ffffa837          	lui	a6,0xffffa
    2d74:	00180893          	addi	a7,a6,1 # ffffa001 <_stack_start+0xffef2001>
    2d78:	011ec533          	xor	a0,t4,a7
    2d7c:	01051e13          	slli	t3,a0,0x10
    2d80:	010e5e93          	srli	t4,t3,0x10
    2d84:	01d5cf33          	xor	t5,a1,t4
    2d88:	001f7f93          	andi	t6,t5,1
    2d8c:	00475693          	srli	a3,a4,0x4
    2d90:	001ed593          	srli	a1,t4,0x1
    2d94:	000f8c63          	beqz	t6,2dac <crcu16+0xa8>
    2d98:	ffffa2b7          	lui	t0,0xffffa
    2d9c:	00128313          	addi	t1,t0,1 # ffffa001 <_stack_start+0xffef2001>
    2da0:	0065c633          	xor	a2,a1,t1
    2da4:	01061393          	slli	t2,a2,0x10
    2da8:	0103d593          	srli	a1,t2,0x10
    2dac:	00b6c833          	xor	a6,a3,a1
    2db0:	00187893          	andi	a7,a6,1
    2db4:	00575e13          	srli	t3,a4,0x5
    2db8:	0015d293          	srli	t0,a1,0x1
    2dbc:	00088c63          	beqz	a7,2dd4 <crcu16+0xd0>
    2dc0:	ffffaeb7          	lui	t4,0xffffa
    2dc4:	001e8f13          	addi	t5,t4,1 # ffffa001 <_stack_start+0xffef2001>
    2dc8:	01e2c533          	xor	a0,t0,t5
    2dcc:	01051f93          	slli	t6,a0,0x10
    2dd0:	010fd293          	srli	t0,t6,0x10
    2dd4:	005e46b3          	xor	a3,t3,t0
    2dd8:	0016f313          	andi	t1,a3,1
    2ddc:	00675393          	srli	t2,a4,0x6
    2de0:	0012de13          	srli	t3,t0,0x1
    2de4:	00030c63          	beqz	t1,2dfc <crcu16+0xf8>
    2de8:	ffffa637          	lui	a2,0xffffa
    2dec:	00160593          	addi	a1,a2,1 # ffffa001 <_stack_start+0xffef2001>
    2df0:	00be4833          	xor	a6,t3,a1
    2df4:	01081893          	slli	a7,a6,0x10
    2df8:	0108de13          	srli	t3,a7,0x10
    2dfc:	01c3ceb3          	xor	t4,t2,t3
    2e00:	001eff13          	andi	t5,t4,1
    2e04:	00775713          	srli	a4,a4,0x7
    2e08:	001e5313          	srli	t1,t3,0x1
    2e0c:	000f0c63          	beqz	t5,2e24 <crcu16+0x120>
    2e10:	ffffafb7          	lui	t6,0xffffa
    2e14:	001f8293          	addi	t0,t6,1 # ffffa001 <_stack_start+0xffef2001>
    2e18:	00534533          	xor	a0,t1,t0
    2e1c:	01051693          	slli	a3,a0,0x10
    2e20:	0106d313          	srli	t1,a3,0x10
    2e24:	00137393          	andi	t2,t1,1
    2e28:	00135e13          	srli	t3,t1,0x1
    2e2c:	14e39263          	bne	t2,a4,2f70 <crcu16+0x26c>
    2e30:	0087de93          	srli	t4,a5,0x8
    2e34:	01cecf33          	xor	t5,t4,t3
    2e38:	001f7f93          	andi	t6,t5,1
    2e3c:	0097d713          	srli	a4,a5,0x9
    2e40:	001e5313          	srli	t1,t3,0x1
    2e44:	000f8c63          	beqz	t6,2e5c <crcu16+0x158>
    2e48:	ffffa7b7          	lui	a5,0xffffa
    2e4c:	00178293          	addi	t0,a5,1 # ffffa001 <_stack_start+0xffef2001>
    2e50:	00534533          	xor	a0,t1,t0
    2e54:	01051693          	slli	a3,a0,0x10
    2e58:	0106d313          	srli	t1,a3,0x10
    2e5c:	006743b3          	xor	t2,a4,t1
    2e60:	0013f613          	andi	a2,t2,1
    2e64:	002ed593          	srli	a1,t4,0x2
    2e68:	00135f93          	srli	t6,t1,0x1
    2e6c:	00060c63          	beqz	a2,2e84 <crcu16+0x180>
    2e70:	ffffa837          	lui	a6,0xffffa
    2e74:	00180893          	addi	a7,a6,1 # ffffa001 <_stack_start+0xffef2001>
    2e78:	011fce33          	xor	t3,t6,a7
    2e7c:	010e1f13          	slli	t5,t3,0x10
    2e80:	010f5f93          	srli	t6,t5,0x10
    2e84:	01f5c733          	xor	a4,a1,t6
    2e88:	00177293          	andi	t0,a4,1
    2e8c:	003ed793          	srli	a5,t4,0x3
    2e90:	001fd613          	srli	a2,t6,0x1
    2e94:	00028c63          	beqz	t0,2eac <crcu16+0x1a8>
    2e98:	ffffa6b7          	lui	a3,0xffffa
    2e9c:	00168313          	addi	t1,a3,1 # ffffa001 <_stack_start+0xffef2001>
    2ea0:	00664533          	xor	a0,a2,t1
    2ea4:	01051393          	slli	t2,a0,0x10
    2ea8:	0103d613          	srli	a2,t2,0x10
    2eac:	00c7c5b3          	xor	a1,a5,a2
    2eb0:	0015f813          	andi	a6,a1,1
    2eb4:	004ed893          	srli	a7,t4,0x4
    2eb8:	00165293          	srli	t0,a2,0x1
    2ebc:	00080c63          	beqz	a6,2ed4 <crcu16+0x1d0>
    2ec0:	ffffae37          	lui	t3,0xffffa
    2ec4:	001e0f13          	addi	t5,t3,1 # ffffa001 <_stack_start+0xffef2001>
    2ec8:	01e2cfb3          	xor	t6,t0,t5
    2ecc:	010f9713          	slli	a4,t6,0x10
    2ed0:	01075293          	srli	t0,a4,0x10
    2ed4:	0058c7b3          	xor	a5,a7,t0
    2ed8:	0017f693          	andi	a3,a5,1
    2edc:	005ed313          	srli	t1,t4,0x5
    2ee0:	0012d813          	srli	a6,t0,0x1
    2ee4:	00068c63          	beqz	a3,2efc <crcu16+0x1f8>
    2ee8:	ffffa3b7          	lui	t2,0xffffa
    2eec:	00138613          	addi	a2,t2,1 # ffffa001 <_stack_start+0xffef2001>
    2ef0:	00c84533          	xor	a0,a6,a2
    2ef4:	01051593          	slli	a1,a0,0x10
    2ef8:	0105d813          	srli	a6,a1,0x10
    2efc:	010348b3          	xor	a7,t1,a6
    2f00:	0018fe13          	andi	t3,a7,1
    2f04:	006edf13          	srli	t5,t4,0x6
    2f08:	00185693          	srli	a3,a6,0x1
    2f0c:	000e0c63          	beqz	t3,2f24 <crcu16+0x220>
    2f10:	ffffafb7          	lui	t6,0xffffa
    2f14:	001f8713          	addi	a4,t6,1 # ffffa001 <_stack_start+0xffef2001>
    2f18:	00e6c2b3          	xor	t0,a3,a4
    2f1c:	01029793          	slli	a5,t0,0x10
    2f20:	0107d693          	srli	a3,a5,0x10
    2f24:	00df4333          	xor	t1,t5,a3
    2f28:	00137393          	andi	t2,t1,1
    2f2c:	007ede93          	srli	t4,t4,0x7
    2f30:	0016d893          	srli	a7,a3,0x1
    2f34:	00038c63          	beqz	t2,2f4c <crcu16+0x248>
    2f38:	ffffa637          	lui	a2,0xffffa
    2f3c:	00160593          	addi	a1,a2,1 # ffffa001 <_stack_start+0xffef2001>
    2f40:	00b8c533          	xor	a0,a7,a1
    2f44:	01051813          	slli	a6,a0,0x10
    2f48:	01085893          	srli	a7,a6,0x10
    2f4c:	0018fe13          	andi	t3,a7,1
    2f50:	0018d513          	srli	a0,a7,0x1
    2f54:	01de0c63          	beq	t3,t4,2f6c <crcu16+0x268>
    2f58:	ffffaf37          	lui	t5,0xffffa
    2f5c:	001f0f93          	addi	t6,t5,1 # ffffa001 <_stack_start+0xffef2001>
    2f60:	01f54733          	xor	a4,a0,t6
    2f64:	01071293          	slli	t0,a4,0x10
    2f68:	0102d513          	srli	a0,t0,0x10
    2f6c:	00008067          	ret
    2f70:	ffffa637          	lui	a2,0xffffa
    2f74:	00160593          	addi	a1,a2,1 # ffffa001 <_stack_start+0xffef2001>
    2f78:	00be4833          	xor	a6,t3,a1
    2f7c:	01081893          	slli	a7,a6,0x10
    2f80:	0108de13          	srli	t3,a7,0x10
    2f84:	eadff06f          	j	2e30 <crcu16+0x12c>

00002f88 <core_bench_list>:
    2f88:	00050613          	mv	a2,a0
    2f8c:	00451503          	lh	a0,4(a0)
    2f90:	fe010113          	addi	sp,sp,-32
    2f94:	00812c23          	sw	s0,24(sp)
    2f98:	00112e23          	sw	ra,28(sp)
    2f9c:	00912a23          	sw	s1,20(sp)
    2fa0:	01212823          	sw	s2,16(sp)
    2fa4:	01312623          	sw	s3,12(sp)
    2fa8:	01412423          	sw	s4,8(sp)
    2fac:	01512223          	sw	s5,4(sp)
    2fb0:	01612023          	sw	s6,0(sp)
    2fb4:	02462403          	lw	s0,36(a2)
    2fb8:	26a05663          	blez	a0,3224 <core_bench_list+0x29c>
    2fbc:	00058493          	mv	s1,a1
    2fc0:	00000893          	li	a7,0
    2fc4:	00000e13          	li	t3,0
    2fc8:	00000b13          	li	s6,0
    2fcc:	00000813          	li	a6,0
    2fd0:	0ff8fa13          	zext.b	s4,a7
    2fd4:	2004c263          	bltz	s1,31d8 <core_bench_list+0x250>
    2fd8:	24040e63          	beqz	s0,3234 <core_bench_list+0x2ac>
    2fdc:	00040793          	mv	a5,s0
    2fe0:	00c0006f          	j	2fec <core_bench_list+0x64>
    2fe4:	0007a783          	lw	a5,0(a5)
    2fe8:	00078863          	beqz	a5,2ff8 <core_bench_list+0x70>
    2fec:	0047a283          	lw	t0,4(a5)
    2ff0:	00229383          	lh	t2,2(t0)
    2ff4:	fe9398e3          	bne	t2,s1,2fe4 <core_bench_list+0x5c>
    2ff8:	00000693          	li	a3,0
    2ffc:	00c0006f          	j	3008 <core_bench_list+0x80>
    3000:	00040693          	mv	a3,s0
    3004:	00090413          	mv	s0,s2
    3008:	00042903          	lw	s2,0(s0)
    300c:	00d42023          	sw	a3,0(s0)
    3010:	fe0918e3          	bnez	s2,3000 <core_bench_list+0x78>
    3014:	1e078463          	beqz	a5,31fc <core_bench_list+0x274>
    3018:	0047a983          	lw	s3,4(a5)
    301c:	001b0313          	addi	t1,s6,1
    3020:	01031a93          	slli	s5,t1,0x10
    3024:	00099e83          	lh	t4,0(s3)
    3028:	010adb13          	srli	s6,s5,0x10
    302c:	001eff13          	andi	t5,t4,1
    3030:	000f0c63          	beqz	t5,3048 <core_bench_list+0xc0>
    3034:	409edf93          	srai	t6,t4,0x9
    3038:	001ff713          	andi	a4,t6,1
    303c:	00e80833          	add	a6,a6,a4
    3040:	01081093          	slli	ra,a6,0x10
    3044:	0100d813          	srli	a6,ra,0x10
    3048:	0007a283          	lw	t0,0(a5)
    304c:	00028c63          	beqz	t0,3064 <core_bench_list+0xdc>
    3050:	0002a383          	lw	t2,0(t0)
    3054:	0077a023          	sw	t2,0(a5)
    3058:	00042783          	lw	a5,0(s0)
    305c:	00f2a023          	sw	a5,0(t0)
    3060:	00542023          	sw	t0,0(s0)
    3064:	0004c863          	bltz	s1,3074 <core_bench_list+0xec>
    3068:	00148493          	addi	s1,s1,1
    306c:	01049f13          	slli	t5,s1,0x10
    3070:	410f5493          	srai	s1,t5,0x10
    3074:	00188893          	addi	a7,a7,1
    3078:	01089f93          	slli	t6,a7,0x10
    307c:	410fd893          	srai	a7,t6,0x10
    3080:	f51518e3          	bne	a0,a7,2fd0 <core_bench_list+0x48>
    3084:	002b1513          	slli	a0,s6,0x2
    3088:	41c50b33          	sub	s6,a0,t3
    308c:	01680733          	add	a4,a6,s6
    3090:	01071093          	slli	ra,a4,0x10
    3094:	0100d913          	srli	s2,ra,0x10
    3098:	00100813          	li	a6,1
    309c:	01059c63          	bne	a1,a6,30b4 <core_bench_list+0x12c>
    30a0:	000055b7          	lui	a1,0x5
    30a4:	00040513          	mv	a0,s0
    30a8:	04458593          	addi	a1,a1,68 # 5044 <cmp_complex>
    30ac:	a29ff0ef          	jal	ra,2ad4 <core_list_mergesort>
    30b0:	00050413          	mv	s0,a0
    30b4:	00042283          	lw	t0,0(s0)
    30b8:	00040793          	mv	a5,s0
    30bc:	0002aa83          	lw	s5,0(t0)
    30c0:	0042ab03          	lw	s6,4(t0)
    30c4:	004aa603          	lw	a2,4(s5)
    30c8:	000aa383          	lw	t2,0(s5)
    30cc:	00c2a223          	sw	a2,4(t0)
    30d0:	016aa223          	sw	s6,4(s5)
    30d4:	0072a023          	sw	t2,0(t0)
    30d8:	000aa023          	sw	zero,0(s5)
    30dc:	0c04c463          	bltz	s1,31a4 <core_bench_list+0x21c>
    30e0:	0047aa03          	lw	s4,4(a5)
    30e4:	00078993          	mv	s3,a5
    30e8:	0007a783          	lw	a5,0(a5)
    30ec:	002a1303          	lh	t1,2(s4)
    30f0:	0e930063          	beq	t1,s1,31d0 <core_bench_list+0x248>
    30f4:	fe0796e3          	bnez	a5,30e0 <core_bench_list+0x158>
    30f8:	00042a03          	lw	s4,0(s0)
    30fc:	000a0993          	mv	s3,s4
    3100:	020a0263          	beqz	s4,3124 <core_bench_list+0x19c>
    3104:	00442e83          	lw	t4,4(s0)
    3108:	000ed483          	lhu	s1,0(t4)
    310c:	00090593          	mv	a1,s2
    3110:	00048513          	mv	a0,s1
    3114:	bf1ff0ef          	jal	ra,2d04 <crcu16>
    3118:	0009a983          	lw	s3,0(s3)
    311c:	00050913          	mv	s2,a0
    3120:	fe0996e3          	bnez	s3,310c <core_bench_list+0x184>
    3124:	004a2f03          	lw	t5,4(s4)
    3128:	000a2f83          	lw	t6,0(s4)
    312c:	000038b7          	lui	a7,0x3
    3130:	01eaa223          	sw	t5,4(s5)
    3134:	016a2223          	sw	s6,4(s4)
    3138:	01faa023          	sw	t6,0(s5)
    313c:	00040513          	mv	a0,s0
    3140:	015a2023          	sw	s5,0(s4)
    3144:	00000613          	li	a2,0
    3148:	a7888593          	addi	a1,a7,-1416 # 2a78 <cmp_idx>
    314c:	989ff0ef          	jal	ra,2ad4 <core_list_mergesort>
    3150:	00052403          	lw	s0,0(a0)
    3154:	02040263          	beqz	s0,3178 <core_bench_list+0x1f0>
    3158:	00452503          	lw	a0,4(a0)
    315c:	00055983          	lhu	s3,0(a0)
    3160:	00090593          	mv	a1,s2
    3164:	00098513          	mv	a0,s3
    3168:	b9dff0ef          	jal	ra,2d04 <crcu16>
    316c:	00042403          	lw	s0,0(s0)
    3170:	00050913          	mv	s2,a0
    3174:	fe0416e3          	bnez	s0,3160 <core_bench_list+0x1d8>
    3178:	01c12083          	lw	ra,28(sp)
    317c:	01812403          	lw	s0,24(sp)
    3180:	01412483          	lw	s1,20(sp)
    3184:	00c12983          	lw	s3,12(sp)
    3188:	00812a03          	lw	s4,8(sp)
    318c:	00412a83          	lw	s5,4(sp)
    3190:	00012b03          	lw	s6,0(sp)
    3194:	00090513          	mv	a0,s2
    3198:	01012903          	lw	s2,16(sp)
    319c:	02010113          	addi	sp,sp,32
    31a0:	00008067          	ret
    31a4:	0047a683          	lw	a3,4(a5)
    31a8:	00078993          	mv	s3,a5
    31ac:	0007a783          	lw	a5,0(a5)
    31b0:	0006ce03          	lbu	t3,0(a3)
    31b4:	014e0e63          	beq	t3,s4,31d0 <core_bench_list+0x248>
    31b8:	f40780e3          	beqz	a5,30f8 <core_bench_list+0x170>
    31bc:	0047a683          	lw	a3,4(a5)
    31c0:	00078993          	mv	s3,a5
    31c4:	0007a783          	lw	a5,0(a5)
    31c8:	0006ce03          	lbu	t3,0(a3)
    31cc:	ff4e16e3          	bne	t3,s4,31b8 <core_bench_list+0x230>
    31d0:	00042a03          	lw	s4,0(s0)
    31d4:	f31ff06f          	j	3104 <core_bench_list+0x17c>
    31d8:	04040e63          	beqz	s0,3234 <core_bench_list+0x2ac>
    31dc:	00040793          	mv	a5,s0
    31e0:	00c0006f          	j	31ec <core_bench_list+0x264>
    31e4:	0007a783          	lw	a5,0(a5)
    31e8:	e00788e3          	beqz	a5,2ff8 <core_bench_list+0x70>
    31ec:	0047a703          	lw	a4,4(a5)
    31f0:	00074083          	lbu	ra,0(a4) # 80000000 <_stack_start+0x7fef8000>
    31f4:	ff4098e3          	bne	ra,s4,31e4 <core_bench_list+0x25c>
    31f8:	e01ff06f          	j	2ff8 <core_bench_list+0x70>
    31fc:	0046a683          	lw	a3,4(a3)
    3200:	001e0e13          	addi	t3,t3,1
    3204:	010e1913          	slli	s2,t3,0x10
    3208:	00168983          	lb	s3,1(a3)
    320c:	01095e13          	srli	t3,s2,0x10
    3210:	0019f313          	andi	t1,s3,1
    3214:	00680ab3          	add	s5,a6,t1
    3218:	010a9e93          	slli	t4,s5,0x10
    321c:	010ed813          	srli	a6,t4,0x10
    3220:	e45ff06f          	j	3064 <core_bench_list+0xdc>
    3224:	00000a13          	li	s4,0
    3228:	00058493          	mv	s1,a1
    322c:	00000913          	li	s2,0
    3230:	e69ff06f          	j	3098 <core_bench_list+0x110>
    3234:	00002783          	lw	a5,0(zero) # 0 <__DYNAMIC>
    3238:	00100073          	ebreak

0000323c <core_state_transition>:
    323c:	00052303          	lw	t1,0(a0)
    3240:	00050e13          	mv	t3,a0
    3244:	00000513          	li	a0,0
    3248:	00034803          	lbu	a6,0(t1)
    324c:	00030713          	mv	a4,t1
    3250:	12080063          	beqz	a6,3370 <core_state_transition+0x134>
    3254:	00130693          	addi	a3,t1,1
    3258:	02c00513          	li	a0,44
    325c:	00068713          	mv	a4,a3
    3260:	2aa80263          	beq	a6,a0,3504 <core_state_transition+0x2c8>
    3264:	0005a603          	lw	a2,0(a1)
    3268:	fd080793          	addi	a5,a6,-48
    326c:	0ff7f293          	zext.b	t0,a5
    3270:	00900893          	li	a7,9
    3274:	00160393          	addi	t2,a2,1
    3278:	1058e063          	bltu	a7,t0,3378 <core_state_transition+0x13c>
    327c:	0075a023          	sw	t2,0(a1)
    3280:	00134283          	lbu	t0,1(t1)
    3284:	2a028263          	beqz	t0,3528 <core_state_transition+0x2ec>
    3288:	28a28463          	beq	t0,a0,3510 <core_state_transition+0x2d4>
    328c:	fd028513          	addi	a0,t0,-48
    3290:	02e00e93          	li	t4,46
    3294:	00900f13          	li	t5,9
    3298:	02c00f93          	li	t6,44
    329c:	0ff57813          	zext.b	a6,a0
    32a0:	00170793          	addi	a5,a4,1
    32a4:	03d28463          	beq	t0,t4,32cc <core_state_transition+0x90>
    32a8:	110f6263          	bltu	t5,a6,33ac <core_state_transition+0x170>
    32ac:	0007c283          	lbu	t0,0(a5)
    32b0:	2c028e63          	beqz	t0,358c <core_state_transition+0x350>
    32b4:	2ff28263          	beq	t0,t6,3598 <core_state_transition+0x35c>
    32b8:	00078713          	mv	a4,a5
    32bc:	fd028513          	addi	a0,t0,-48
    32c0:	0ff57813          	zext.b	a6,a0
    32c4:	00170793          	addi	a5,a4,1
    32c8:	ffd290e3          	bne	t0,t4,32a8 <core_state_transition+0x6c>
    32cc:	0105a883          	lw	a7,16(a1)
    32d0:	00188313          	addi	t1,a7,1
    32d4:	0065a823          	sw	t1,16(a1)
    32d8:	00174603          	lbu	a2,1(a4)
    32dc:	28060a63          	beqz	a2,3570 <core_state_transition+0x334>
    32e0:	02c00393          	li	t2,44
    32e4:	28760c63          	beq	a2,t2,357c <core_state_transition+0x340>
    32e8:	fd060713          	addi	a4,a2,-48
    32ec:	04500e93          	li	t4,69
    32f0:	0df67513          	andi	a0,a2,223
    32f4:	0ff77813          	zext.b	a6,a4
    32f8:	00900f13          	li	t5,9
    32fc:	02c00f93          	li	t6,44
    3300:	00178713          	addi	a4,a5,1
    3304:	03d50663          	beq	a0,t4,3330 <core_state_transition+0xf4>
    3308:	150f6a63          	bltu	t5,a6,345c <core_state_transition+0x220>
    330c:	00074603          	lbu	a2,0(a4)
    3310:	22060063          	beqz	a2,3530 <core_state_transition+0x2f4>
    3314:	29f60a63          	beq	a2,t6,35a8 <core_state_transition+0x36c>
    3318:	00070793          	mv	a5,a4
    331c:	0df67513          	andi	a0,a2,223
    3320:	fd060713          	addi	a4,a2,-48
    3324:	0ff77813          	zext.b	a6,a4
    3328:	00178713          	addi	a4,a5,1
    332c:	fdd51ee3          	bne	a0,t4,3308 <core_state_transition+0xcc>
    3330:	0145a283          	lw	t0,20(a1)
    3334:	00300513          	li	a0,3
    3338:	00128893          	addi	a7,t0,1
    333c:	0115aa23          	sw	a7,20(a1)
    3340:	0017c303          	lbu	t1,1(a5)
    3344:	02030663          	beqz	t1,3370 <core_state_transition+0x134>
    3348:	02c00393          	li	t2,44
    334c:	20730263          	beq	t1,t2,3550 <core_state_transition+0x314>
    3350:	00c5ae83          	lw	t4,12(a1)
    3354:	fd530f13          	addi	t5,t1,-43
    3358:	0fdf7f93          	andi	t6,t5,253
    335c:	001e8513          	addi	a0,t4,1
    3360:	00278713          	addi	a4,a5,2
    3364:	060f8263          	beqz	t6,33c8 <core_state_transition+0x18c>
    3368:	00a5a623          	sw	a0,12(a1)
    336c:	00100513          	li	a0,1
    3370:	00ee2023          	sw	a4,0(t3)
    3374:	00008067          	ret
    3378:	02d00e93          	li	t4,45
    337c:	11d80663          	beq	a6,t4,3488 <core_state_transition+0x24c>
    3380:	02e00f13          	li	t5,46
    3384:	0fe80663          	beq	a6,t5,3470 <core_state_transition+0x234>
    3388:	02b00f93          	li	t6,43
    338c:	0ff80e63          	beq	a6,t6,3488 <core_state_transition+0x24c>
    3390:	0045a303          	lw	t1,4(a1)
    3394:	0075a023          	sw	t2,0(a1)
    3398:	00100513          	li	a0,1
    339c:	00130393          	addi	t2,t1,1
    33a0:	0075a223          	sw	t2,4(a1)
    33a4:	00ee2023          	sw	a4,0(t3)
    33a8:	00008067          	ret
    33ac:	0105a683          	lw	a3,16(a1)
    33b0:	00078713          	mv	a4,a5
    33b4:	00100513          	li	a0,1
    33b8:	00168613          	addi	a2,a3,1
    33bc:	00c5a823          	sw	a2,16(a1)
    33c0:	00ee2023          	sw	a4,0(t3)
    33c4:	00008067          	ret
    33c8:	00a5a623          	sw	a0,12(a1)
    33cc:	0027c803          	lbu	a6,2(a5)
    33d0:	16080463          	beqz	a6,3538 <core_state_transition+0x2fc>
    33d4:	16780663          	beq	a6,t2,3540 <core_state_transition+0x304>
    33d8:	0185a703          	lw	a4,24(a1)
    33dc:	fd080693          	addi	a3,a6,-48
    33e0:	0ff6f293          	zext.b	t0,a3
    33e4:	00900893          	li	a7,9
    33e8:	00170613          	addi	a2,a4,1
    33ec:	00378713          	addi	a4,a5,3
    33f0:	0458e263          	bltu	a7,t0,3434 <core_state_transition+0x1f8>
    33f4:	00c5ac23          	sw	a2,24(a1)
    33f8:	0037c503          	lbu	a0,3(a5)
    33fc:	12050263          	beqz	a0,3520 <core_state_transition+0x2e4>
    3400:	16750063          	beq	a0,t2,3560 <core_state_transition+0x324>
    3404:	00900793          	li	a5,9
    3408:	02c00313          	li	t1,44
    340c:	fd050393          	addi	t2,a0,-48
    3410:	0ff3fe93          	zext.b	t4,t2
    3414:	00170713          	addi	a4,a4,1
    3418:	03d7f463          	bgeu	a5,t4,3440 <core_state_transition+0x204>
    341c:	0045af03          	lw	t5,4(a1)
    3420:	00100513          	li	a0,1
    3424:	001f0f93          	addi	t6,t5,1
    3428:	01f5a223          	sw	t6,4(a1)
    342c:	00ee2023          	sw	a4,0(t3)
    3430:	00008067          	ret
    3434:	00c5ac23          	sw	a2,24(a1)
    3438:	00100513          	li	a0,1
    343c:	f35ff06f          	j	3370 <core_state_transition+0x134>
    3440:	00074503          	lbu	a0,0(a4)
    3444:	0c050e63          	beqz	a0,3520 <core_state_transition+0x2e4>
    3448:	fc6512e3          	bne	a0,t1,340c <core_state_transition+0x1d0>
    344c:	00170693          	addi	a3,a4,1
    3450:	00700513          	li	a0,7
    3454:	00068713          	mv	a4,a3
    3458:	f19ff06f          	j	3370 <core_state_transition+0x134>
    345c:	0145a783          	lw	a5,20(a1)
    3460:	00100513          	li	a0,1
    3464:	00178693          	addi	a3,a5,1
    3468:	00d5aa23          	sw	a3,20(a1)
    346c:	f05ff06f          	j	3370 <core_state_transition+0x134>
    3470:	0075a023          	sw	t2,0(a1)
    3474:	00134603          	lbu	a2,1(t1)
    3478:	0a060c63          	beqz	a2,3530 <core_state_transition+0x2f4>
    347c:	14a60663          	beq	a2,a0,35c8 <core_state_transition+0x38c>
    3480:	00068793          	mv	a5,a3
    3484:	e65ff06f          	j	32e8 <core_state_transition+0xac>
    3488:	0075a023          	sw	t2,0(a1)
    348c:	00134503          	lbu	a0,1(t1)
    3490:	14050c63          	beqz	a0,35e8 <core_state_transition+0x3ac>
    3494:	02c00813          	li	a6,44
    3498:	15050063          	beq	a0,a6,35d8 <core_state_transition+0x39c>
    349c:	0085a683          	lw	a3,8(a1)
    34a0:	fd050713          	addi	a4,a0,-48
    34a4:	0ff77793          	zext.b	a5,a4
    34a8:	00900613          	li	a2,9
    34ac:	00168293          	addi	t0,a3,1
    34b0:	00230713          	addi	a4,t1,2
    34b4:	00f67c63          	bgeu	a2,a5,34cc <core_state_transition+0x290>
    34b8:	02e00893          	li	a7,46
    34bc:	03150863          	beq	a0,a7,34ec <core_state_transition+0x2b0>
    34c0:	0055a423          	sw	t0,8(a1)
    34c4:	00100513          	li	a0,1
    34c8:	ea9ff06f          	j	3370 <core_state_transition+0x134>
    34cc:	0055a423          	sw	t0,8(a1)
    34d0:	00234283          	lbu	t0,2(t1)
    34d4:	04028a63          	beqz	t0,3528 <core_state_transition+0x2ec>
    34d8:	db029ae3          	bne	t0,a6,328c <core_state_transition+0x50>
    34dc:	00330693          	addi	a3,t1,3
    34e0:	00400513          	li	a0,4
    34e4:	00068713          	mv	a4,a3
    34e8:	e89ff06f          	j	3370 <core_state_transition+0x134>
    34ec:	0055a423          	sw	t0,8(a1)
    34f0:	00234603          	lbu	a2,2(t1)
    34f4:	02060e63          	beqz	a2,3530 <core_state_transition+0x2f4>
    34f8:	0d060063          	beq	a2,a6,35b8 <core_state_transition+0x37c>
    34fc:	00070793          	mv	a5,a4
    3500:	de9ff06f          	j	32e8 <core_state_transition+0xac>
    3504:	00000513          	li	a0,0
    3508:	00068713          	mv	a4,a3
    350c:	e65ff06f          	j	3370 <core_state_transition+0x134>
    3510:	00230693          	addi	a3,t1,2
    3514:	00400513          	li	a0,4
    3518:	00068713          	mv	a4,a3
    351c:	e55ff06f          	j	3370 <core_state_transition+0x134>
    3520:	00700513          	li	a0,7
    3524:	e4dff06f          	j	3370 <core_state_transition+0x134>
    3528:	00400513          	li	a0,4
    352c:	e45ff06f          	j	3370 <core_state_transition+0x134>
    3530:	00500513          	li	a0,5
    3534:	e3dff06f          	j	3370 <core_state_transition+0x134>
    3538:	00600513          	li	a0,6
    353c:	e35ff06f          	j	3370 <core_state_transition+0x134>
    3540:	00378693          	addi	a3,a5,3
    3544:	00600513          	li	a0,6
    3548:	00068713          	mv	a4,a3
    354c:	e25ff06f          	j	3370 <core_state_transition+0x134>
    3550:	00278693          	addi	a3,a5,2
    3554:	00300513          	li	a0,3
    3558:	00068713          	mv	a4,a3
    355c:	e15ff06f          	j	3370 <core_state_transition+0x134>
    3560:	00478693          	addi	a3,a5,4
    3564:	00700513          	li	a0,7
    3568:	00068713          	mv	a4,a3
    356c:	e05ff06f          	j	3370 <core_state_transition+0x134>
    3570:	00078713          	mv	a4,a5
    3574:	00500513          	li	a0,5
    3578:	df9ff06f          	j	3370 <core_state_transition+0x134>
    357c:	00270693          	addi	a3,a4,2
    3580:	00500513          	li	a0,5
    3584:	00068713          	mv	a4,a3
    3588:	de9ff06f          	j	3370 <core_state_transition+0x134>
    358c:	00078713          	mv	a4,a5
    3590:	00400513          	li	a0,4
    3594:	dddff06f          	j	3370 <core_state_transition+0x134>
    3598:	00270693          	addi	a3,a4,2
    359c:	00400513          	li	a0,4
    35a0:	00068713          	mv	a4,a3
    35a4:	dcdff06f          	j	3370 <core_state_transition+0x134>
    35a8:	00278693          	addi	a3,a5,2
    35ac:	00500513          	li	a0,5
    35b0:	00068713          	mv	a4,a3
    35b4:	dbdff06f          	j	3370 <core_state_transition+0x134>
    35b8:	00330693          	addi	a3,t1,3
    35bc:	00500513          	li	a0,5
    35c0:	00068713          	mv	a4,a3
    35c4:	dadff06f          	j	3370 <core_state_transition+0x134>
    35c8:	00230693          	addi	a3,t1,2
    35cc:	00500513          	li	a0,5
    35d0:	00068713          	mv	a4,a3
    35d4:	d9dff06f          	j	3370 <core_state_transition+0x134>
    35d8:	00168693          	addi	a3,a3,1
    35dc:	00200513          	li	a0,2
    35e0:	00068713          	mv	a4,a3
    35e4:	d8dff06f          	j	3370 <core_state_transition+0x134>
    35e8:	00200513          	li	a0,2
    35ec:	d85ff06f          	j	3370 <core_state_transition+0x134>

000035f0 <calc_func>:
    35f0:	00051703          	lh	a4,0(a0)
    35f4:	f4010113          	addi	sp,sp,-192
    35f8:	0a112e23          	sw	ra,188(sp)
    35fc:	40775793          	srai	a5,a4,0x7
    3600:	00a12c23          	sw	a0,24(sp)
    3604:	0a812c23          	sw	s0,184(sp)
    3608:	0a912a23          	sw	s1,180(sp)
    360c:	0b212823          	sw	s2,176(sp)
    3610:	0b312623          	sw	s3,172(sp)
    3614:	0b412423          	sw	s4,168(sp)
    3618:	0b512223          	sw	s5,164(sp)
    361c:	0b612023          	sw	s6,160(sp)
    3620:	09712e23          	sw	s7,156(sp)
    3624:	09812c23          	sw	s8,152(sp)
    3628:	09912a23          	sw	s9,148(sp)
    362c:	09a12823          	sw	s10,144(sp)
    3630:	09b12623          	sw	s11,140(sp)
    3634:	00e12423          	sw	a4,8(sp)
    3638:	00b12223          	sw	a1,4(sp)
    363c:	0017f093          	andi	ra,a5,1
    3640:	07f77513          	andi	a0,a4,127
    3644:	20009263          	bnez	ra,3848 <calc_func+0x258>
    3648:	00412283          	lw	t0,4(sp)
    364c:	00812603          	lw	a2,8(sp)
    3650:	0382d403          	lhu	s0,56(t0)
    3654:	40365313          	srai	t1,a2,0x3
    3658:	00f37393          	andi	t2,t1,15
    365c:	00439693          	slli	a3,t2,0x4
    3660:	00767493          	andi	s1,a2,7
    3664:	02812023          	sw	s0,32(sp)
    3668:	0076e6b3          	or	a3,a3,t2
    366c:	20048c63          	beqz	s1,3884 <calc_func+0x294>
    3670:	00100893          	li	a7,1
    3674:	19149c63          	bne	s1,a7,380c <calc_func+0x21c>
    3678:	00412d83          	lw	s11,4(sp)
    367c:	fffffeb7          	lui	t4,0xfffff
    3680:	030da903          	lw	s2,48(s11)
    3684:	034da483          	lw	s1,52(s11)
    3688:	02cdae03          	lw	t3,44(s11)
    368c:	028dac83          	lw	s9,40(s11)
    3690:	01212a23          	sw	s2,20(sp)
    3694:	00912e23          	sw	s1,28(sp)
    3698:	01c12623          	sw	t3,12(sp)
    369c:	01d6e933          	or	s2,a3,t4
    36a0:	000c9463          	bnez	s9,36a8 <calc_func+0xb8>
    36a4:	15d0106f          	j	5000 <calc_func+0x1a10>
    36a8:	001c9413          	slli	s0,s9,0x1
    36ac:	41900a33          	neg	s4,s9
    36b0:	008e0633          	add	a2,t3,s0
    36b4:	01069f13          	slli	t5,a3,0x10
    36b8:	002a1f93          	slli	t6,s4,0x2
    36bc:	010f5993          	srli	s3,t5,0x10
    36c0:	00060513          	mv	a0,a2
    36c4:	00000813          	li	a6,0
    36c8:	01f12823          	sw	t6,16(sp)
    36cc:	40850b33          	sub	s6,a0,s0
    36d0:	41650733          	sub	a4,a0,s6
    36d4:	ffe70793          	addi	a5,a4,-2
    36d8:	0017d293          	srli	t0,a5,0x1
    36dc:	00128b93          	addi	s7,t0,1
    36e0:	007bfc13          	andi	s8,s7,7
    36e4:	000b0793          	mv	a5,s6
    36e8:	0a0c0463          	beqz	s8,3790 <calc_func+0x1a0>
    36ec:	00100313          	li	t1,1
    36f0:	086c0663          	beq	s8,t1,377c <calc_func+0x18c>
    36f4:	00200393          	li	t2,2
    36f8:	067c0a63          	beq	s8,t2,376c <calc_func+0x17c>
    36fc:	00300d13          	li	s10,3
    3700:	05ac0e63          	beq	s8,s10,375c <calc_func+0x16c>
    3704:	00400593          	li	a1,4
    3708:	04bc0263          	beq	s8,a1,374c <calc_func+0x15c>
    370c:	00500093          	li	ra,5
    3710:	021c0663          	beq	s8,ra,373c <calc_func+0x14c>
    3714:	00600a93          	li	s5,6
    3718:	015c0a63          	beq	s8,s5,372c <calc_func+0x13c>
    371c:	000b5883          	lhu	a7,0(s6)
    3720:	002b0793          	addi	a5,s6,2
    3724:	01198db3          	add	s11,s3,a7
    3728:	01bb1023          	sh	s11,0(s6)
    372c:	0007d483          	lhu	s1,0(a5)
    3730:	00278793          	addi	a5,a5,2
    3734:	00998e33          	add	t3,s3,s1
    3738:	ffc79f23          	sh	t3,-2(a5)
    373c:	0007de83          	lhu	t4,0(a5)
    3740:	00278793          	addi	a5,a5,2
    3744:	01d98a33          	add	s4,s3,t4
    3748:	ff479f23          	sh	s4,-2(a5)
    374c:	0007df03          	lhu	t5,0(a5)
    3750:	00278793          	addi	a5,a5,2
    3754:	01e98733          	add	a4,s3,t5
    3758:	fee79f23          	sh	a4,-2(a5)
    375c:	0007d283          	lhu	t0,0(a5)
    3760:	00278793          	addi	a5,a5,2
    3764:	00598bb3          	add	s7,s3,t0
    3768:	ff779f23          	sh	s7,-2(a5)
    376c:	0007dc03          	lhu	s8,0(a5)
    3770:	00278793          	addi	a5,a5,2
    3774:	01898333          	add	t1,s3,s8
    3778:	fe679f23          	sh	t1,-2(a5)
    377c:	0007d383          	lhu	t2,0(a5)
    3780:	00278793          	addi	a5,a5,2
    3784:	00798d33          	add	s10,s3,t2
    3788:	ffa79f23          	sh	s10,-2(a5)
    378c:	06f50663          	beq	a0,a5,37f8 <calc_func+0x208>
    3790:	0007d583          	lhu	a1,0(a5)
    3794:	0027d083          	lhu	ra,2(a5)
    3798:	0047da83          	lhu	s5,4(a5)
    379c:	0067dd83          	lhu	s11,6(a5)
    37a0:	0087d483          	lhu	s1,8(a5)
    37a4:	00a7da03          	lhu	s4,10(a5)
    37a8:	00c7d883          	lhu	a7,12(a5)
    37ac:	00e7d703          	lhu	a4,14(a5)
    37b0:	00b98bb3          	add	s7,s3,a1
    37b4:	001982b3          	add	t0,s3,ra
    37b8:	01598f33          	add	t5,s3,s5
    37bc:	01b98eb3          	add	t4,s3,s11
    37c0:	00998e33          	add	t3,s3,s1
    37c4:	01498c33          	add	s8,s3,s4
    37c8:	01198333          	add	t1,s3,a7
    37cc:	00e983b3          	add	t2,s3,a4
    37d0:	01779023          	sh	s7,0(a5)
    37d4:	00579123          	sh	t0,2(a5)
    37d8:	01e79223          	sh	t5,4(a5)
    37dc:	01d79323          	sh	t4,6(a5)
    37e0:	01c79423          	sh	t3,8(a5)
    37e4:	01879523          	sh	s8,10(a5)
    37e8:	00679623          	sh	t1,12(a5)
    37ec:	00779723          	sh	t2,14(a5)
    37f0:	01078793          	addi	a5,a5,16
    37f4:	f8f51ee3          	bne	a0,a5,3790 <calc_func+0x1a0>
    37f8:	00180493          	addi	s1,a6,1
    37fc:	41fb0533          	sub	a0,s6,t6
    3800:	3c9c8e63          	beq	s9,s1,3bdc <calc_func+0x5ec>
    3804:	00048813          	mv	a6,s1
    3808:	ec5ff06f          	j	36cc <calc_func+0xdc>
    380c:	01061513          	slli	a0,a2,0x10
    3810:	01055513          	srli	a0,a0,0x10
    3814:	00060a93          	mv	s5,a2
    3818:	00040593          	mv	a1,s0
    381c:	ce8ff0ef          	jal	ra,2d04 <crcu16>
    3820:	00812f03          	lw	t5,8(sp)
    3824:	00412e03          	lw	t3,4(sp)
    3828:	00050e93          	mv	t4,a0
    382c:	01812383          	lw	t2,24(sp)
    3830:	07faf513          	andi	a0,s5,127
    3834:	f00f7713          	andi	a4,t5,-256
    3838:	00e567b3          	or	a5,a0,a4
    383c:	03de1c23          	sh	t4,56(t3)
    3840:	0807e293          	ori	t0,a5,128
    3844:	00539023          	sh	t0,0(t2)
    3848:	0bc12083          	lw	ra,188(sp)
    384c:	0b812403          	lw	s0,184(sp)
    3850:	0b412483          	lw	s1,180(sp)
    3854:	0b012903          	lw	s2,176(sp)
    3858:	0ac12983          	lw	s3,172(sp)
    385c:	0a812a03          	lw	s4,168(sp)
    3860:	0a412a83          	lw	s5,164(sp)
    3864:	0a012b03          	lw	s6,160(sp)
    3868:	09c12b83          	lw	s7,156(sp)
    386c:	09812c03          	lw	s8,152(sp)
    3870:	09412c83          	lw	s9,148(sp)
    3874:	09012d03          	lw	s10,144(sp)
    3878:	08c12d83          	lw	s11,140(sp)
    387c:	0c010113          	addi	sp,sp,192
    3880:	00008067          	ret
    3884:	02200513          	li	a0,34
    3888:	00068593          	mv	a1,a3
    388c:	00a6d463          	bge	a3,a0,3894 <calc_func+0x2a4>
    3890:	02200593          	li	a1,34
    3894:	00412803          	lw	a6,4(sp)
    3898:	01059893          	slli	a7,a1,0x10
    389c:	06012023          	sw	zero,96(sp)
    38a0:	01482b03          	lw	s6,20(a6)
    38a4:	04012023          	sw	zero,64(sp)
    38a8:	06012223          	sw	zero,100(sp)
    38ac:	000b4a83          	lbu	s5,0(s6)
    38b0:	06012423          	sw	zero,104(sp)
    38b4:	06012623          	sw	zero,108(sp)
    38b8:	06012823          	sw	zero,112(sp)
    38bc:	06012a23          	sw	zero,116(sp)
    38c0:	06012c23          	sw	zero,120(sp)
    38c4:	06012e23          	sw	zero,124(sp)
    38c8:	04012223          	sw	zero,68(sp)
    38cc:	04012423          	sw	zero,72(sp)
    38d0:	04012623          	sw	zero,76(sp)
    38d4:	04012823          	sw	zero,80(sp)
    38d8:	04012a23          	sw	zero,84(sp)
    38dc:	04012c23          	sw	zero,88(sp)
    38e0:	04012e23          	sw	zero,92(sp)
    38e4:	01882a03          	lw	s4,24(a6)
    38e8:	00081983          	lh	s3,0(a6)
    38ec:	00281903          	lh	s2,2(a6)
    38f0:	4108d493          	srai	s1,a7,0x10
    38f4:	020a8e63          	beqz	s5,3930 <calc_func+0x340>
    38f8:	03612e23          	sw	s6,60(sp)
    38fc:	06010593          	addi	a1,sp,96
    3900:	03c10513          	addi	a0,sp,60
    3904:	939ff0ef          	jal	ra,323c <core_state_transition>
    3908:	00251b93          	slli	s7,a0,0x2
    390c:	050b8c13          	addi	s8,s7,80
    3910:	03010c93          	addi	s9,sp,48
    3914:	019c0d33          	add	s10,s8,s9
    3918:	03c12e03          	lw	t3,60(sp)
    391c:	fc0d2d83          	lw	s11,-64(s10)
    3920:	000e4e83          	lbu	t4,0(t3)
    3924:	001d8f13          	addi	t5,s11,1
    3928:	fded2023          	sw	t5,-64(s10)
    392c:	fc0e98e3          	bnez	t4,38fc <calc_func+0x30c>
    3930:	014b0a33          	add	s4,s6,s4
    3934:	000b0793          	mv	a5,s6
    3938:	02c00f93          	li	t6,44
    393c:	014b6663          	bltu	s6,s4,3948 <calc_func+0x358>
    3940:	6f40106f          	j	5034 <calc_func+0x1a44>
    3944:	0007ca83          	lbu	s5,0(a5)
    3948:	013ac733          	xor	a4,s5,s3
    394c:	01fa8463          	beq	s5,t6,3954 <calc_func+0x364>
    3950:	00e78023          	sb	a4,0(a5)
    3954:	009787b3          	add	a5,a5,s1
    3958:	ff47e6e3          	bltu	a5,s4,3944 <calc_func+0x354>
    395c:	000b4a83          	lbu	s5,0(s6)
    3960:	03612e23          	sw	s6,60(sp)
    3964:	040a8063          	beqz	s5,39a4 <calc_func+0x3b4>
    3968:	06010593          	addi	a1,sp,96
    396c:	03c10513          	addi	a0,sp,60
    3970:	8cdff0ef          	jal	ra,323c <core_state_transition>
    3974:	00251293          	slli	t0,a0,0x2
    3978:	05028613          	addi	a2,t0,80
    397c:	03010313          	addi	t1,sp,48
    3980:	006603b3          	add	t2,a2,t1
    3984:	03c12683          	lw	a3,60(sp)
    3988:	fc03a503          	lw	a0,-64(t2)
    398c:	0006c583          	lbu	a1,0(a3)
    3990:	00150813          	addi	a6,a0,1
    3994:	fd03a023          	sw	a6,-64(t2)
    3998:	fc0598e3          	bnez	a1,3968 <calc_func+0x378>
    399c:	03612e23          	sw	s6,60(sp)
    39a0:	034b7263          	bgeu	s6,s4,39c4 <calc_func+0x3d4>
    39a4:	02c00093          	li	ra,44
    39a8:	0080006f          	j	39b0 <calc_func+0x3c0>
    39ac:	000b4a83          	lbu	s5,0(s6)
    39b0:	012ac9b3          	xor	s3,s5,s2
    39b4:	001a8463          	beq	s5,ra,39bc <calc_func+0x3cc>
    39b8:	013b0023          	sb	s3,0(s6)
    39bc:	009b0b33          	add	s6,s6,s1
    39c0:	ff4b66e3          	bltu	s6,s4,39ac <calc_func+0x3bc>
    39c4:	04012a83          	lw	s5,64(sp)
    39c8:	00040593          	mv	a1,s0
    39cc:	010a9413          	slli	s0,s5,0x10
    39d0:	01045513          	srli	a0,s0,0x10
    39d4:	b30ff0ef          	jal	ra,2d04 <crcu16>
    39d8:	00050593          	mv	a1,a0
    39dc:	010ad513          	srli	a0,s5,0x10
    39e0:	b24ff0ef          	jal	ra,2d04 <crcu16>
    39e4:	06012b83          	lw	s7,96(sp)
    39e8:	00050593          	mv	a1,a0
    39ec:	010b9893          	slli	a7,s7,0x10
    39f0:	0108d513          	srli	a0,a7,0x10
    39f4:	b10ff0ef          	jal	ra,2d04 <crcu16>
    39f8:	00050593          	mv	a1,a0
    39fc:	010bd513          	srli	a0,s7,0x10
    3a00:	b04ff0ef          	jal	ra,2d04 <crcu16>
    3a04:	04412c03          	lw	s8,68(sp)
    3a08:	00050593          	mv	a1,a0
    3a0c:	010c1c93          	slli	s9,s8,0x10
    3a10:	010cd513          	srli	a0,s9,0x10
    3a14:	af0ff0ef          	jal	ra,2d04 <crcu16>
    3a18:	00050593          	mv	a1,a0
    3a1c:	010c5513          	srli	a0,s8,0x10
    3a20:	ae4ff0ef          	jal	ra,2d04 <crcu16>
    3a24:	06412d03          	lw	s10,100(sp)
    3a28:	00050593          	mv	a1,a0
    3a2c:	010d1d93          	slli	s11,s10,0x10
    3a30:	010dd513          	srli	a0,s11,0x10
    3a34:	ad0ff0ef          	jal	ra,2d04 <crcu16>
    3a38:	00050593          	mv	a1,a0
    3a3c:	010d5513          	srli	a0,s10,0x10
    3a40:	ac4ff0ef          	jal	ra,2d04 <crcu16>
    3a44:	04812483          	lw	s1,72(sp)
    3a48:	00050593          	mv	a1,a0
    3a4c:	01049e13          	slli	t3,s1,0x10
    3a50:	010e5513          	srli	a0,t3,0x10
    3a54:	ab0ff0ef          	jal	ra,2d04 <crcu16>
    3a58:	00050593          	mv	a1,a0
    3a5c:	0104d513          	srli	a0,s1,0x10
    3a60:	aa4ff0ef          	jal	ra,2d04 <crcu16>
    3a64:	06812903          	lw	s2,104(sp)
    3a68:	00050593          	mv	a1,a0
    3a6c:	01091e93          	slli	t4,s2,0x10
    3a70:	010ed513          	srli	a0,t4,0x10
    3a74:	a90ff0ef          	jal	ra,2d04 <crcu16>
    3a78:	00050593          	mv	a1,a0
    3a7c:	01095513          	srli	a0,s2,0x10
    3a80:	a84ff0ef          	jal	ra,2d04 <crcu16>
    3a84:	04c12a03          	lw	s4,76(sp)
    3a88:	00050593          	mv	a1,a0
    3a8c:	010a1f13          	slli	t5,s4,0x10
    3a90:	010f5513          	srli	a0,t5,0x10
    3a94:	a70ff0ef          	jal	ra,2d04 <crcu16>
    3a98:	00050593          	mv	a1,a0
    3a9c:	010a5513          	srli	a0,s4,0x10
    3aa0:	a64ff0ef          	jal	ra,2d04 <crcu16>
    3aa4:	06c12983          	lw	s3,108(sp)
    3aa8:	00050593          	mv	a1,a0
    3aac:	01099f93          	slli	t6,s3,0x10
    3ab0:	010fd513          	srli	a0,t6,0x10
    3ab4:	a50ff0ef          	jal	ra,2d04 <crcu16>
    3ab8:	00050593          	mv	a1,a0
    3abc:	0109d513          	srli	a0,s3,0x10
    3ac0:	a44ff0ef          	jal	ra,2d04 <crcu16>
    3ac4:	05012b03          	lw	s6,80(sp)
    3ac8:	00050593          	mv	a1,a0
    3acc:	010b1713          	slli	a4,s6,0x10
    3ad0:	01075513          	srli	a0,a4,0x10
    3ad4:	a30ff0ef          	jal	ra,2d04 <crcu16>
    3ad8:	00050593          	mv	a1,a0
    3adc:	010b5513          	srli	a0,s6,0x10
    3ae0:	a24ff0ef          	jal	ra,2d04 <crcu16>
    3ae4:	07012a83          	lw	s5,112(sp)
    3ae8:	00050593          	mv	a1,a0
    3aec:	010a9793          	slli	a5,s5,0x10
    3af0:	0107d513          	srli	a0,a5,0x10
    3af4:	a10ff0ef          	jal	ra,2d04 <crcu16>
    3af8:	00050593          	mv	a1,a0
    3afc:	010ad513          	srli	a0,s5,0x10
    3b00:	a04ff0ef          	jal	ra,2d04 <crcu16>
    3b04:	05412403          	lw	s0,84(sp)
    3b08:	00050593          	mv	a1,a0
    3b0c:	01041293          	slli	t0,s0,0x10
    3b10:	0102d513          	srli	a0,t0,0x10
    3b14:	9f0ff0ef          	jal	ra,2d04 <crcu16>
    3b18:	00050593          	mv	a1,a0
    3b1c:	01045513          	srli	a0,s0,0x10
    3b20:	9e4ff0ef          	jal	ra,2d04 <crcu16>
    3b24:	07412b83          	lw	s7,116(sp)
    3b28:	00050593          	mv	a1,a0
    3b2c:	010b9613          	slli	a2,s7,0x10
    3b30:	01065513          	srli	a0,a2,0x10
    3b34:	9d0ff0ef          	jal	ra,2d04 <crcu16>
    3b38:	00050593          	mv	a1,a0
    3b3c:	010bd513          	srli	a0,s7,0x10
    3b40:	9c4ff0ef          	jal	ra,2d04 <crcu16>
    3b44:	05812c03          	lw	s8,88(sp)
    3b48:	00050593          	mv	a1,a0
    3b4c:	010c1313          	slli	t1,s8,0x10
    3b50:	01035513          	srli	a0,t1,0x10
    3b54:	9b0ff0ef          	jal	ra,2d04 <crcu16>
    3b58:	00050593          	mv	a1,a0
    3b5c:	010c5513          	srli	a0,s8,0x10
    3b60:	9a4ff0ef          	jal	ra,2d04 <crcu16>
    3b64:	07812c83          	lw	s9,120(sp)
    3b68:	00050593          	mv	a1,a0
    3b6c:	010c9393          	slli	t2,s9,0x10
    3b70:	0103d513          	srli	a0,t2,0x10
    3b74:	990ff0ef          	jal	ra,2d04 <crcu16>
    3b78:	00050593          	mv	a1,a0
    3b7c:	010cd513          	srli	a0,s9,0x10
    3b80:	984ff0ef          	jal	ra,2d04 <crcu16>
    3b84:	05c12d03          	lw	s10,92(sp)
    3b88:	00050593          	mv	a1,a0
    3b8c:	010d1513          	slli	a0,s10,0x10
    3b90:	01055513          	srli	a0,a0,0x10
    3b94:	970ff0ef          	jal	ra,2d04 <crcu16>
    3b98:	00050593          	mv	a1,a0
    3b9c:	010d5513          	srli	a0,s10,0x10
    3ba0:	964ff0ef          	jal	ra,2d04 <crcu16>
    3ba4:	00050593          	mv	a1,a0
    3ba8:	00000513          	li	a0,0
    3bac:	958ff0ef          	jal	ra,2d04 <crcu16>
    3bb0:	00050593          	mv	a1,a0
    3bb4:	00000513          	li	a0,0
    3bb8:	94cff0ef          	jal	ra,2d04 <crcu16>
    3bbc:	00412683          	lw	a3,4(sp)
    3bc0:	01051813          	slli	a6,a0,0x10
    3bc4:	41085a93          	srai	s5,a6,0x10
    3bc8:	03e6d583          	lhu	a1,62(a3)
    3bcc:	00059463          	bnez	a1,3bd4 <calc_func+0x5e4>
    3bd0:	4200106f          	j	4ff0 <calc_func+0x1a00>
    3bd4:	0386d403          	lhu	s0,56(a3)
    3bd8:	c41ff06f          	j	3818 <calc_func+0x228>
    3bdc:	01c12e03          	lw	t3,28(sp)
    3be0:	01012e83          	lw	t4,16(sp)
    3be4:	00000393          	li	t2,0
    3be8:	00000093          	li	ra,0
    3bec:	40860b33          	sub	s6,a2,s0
    3bf0:	416607b3          	sub	a5,a2,s6
    3bf4:	ffe78d13          	addi	s10,a5,-2
    3bf8:	001d5f93          	srli	t6,s10,0x1
    3bfc:	001f8593          	addi	a1,t6,1
    3c00:	00239a93          	slli	s5,t2,0x2
    3c04:	0075fd93          	andi	s11,a1,7
    3c08:	01ca87b3          	add	a5,s5,t3
    3c0c:	000b0713          	mv	a4,s6
    3c10:	0c0d8263          	beqz	s11,3cd4 <calc_func+0x6e4>
    3c14:	00100a13          	li	s4,1
    3c18:	0b4d8263          	beq	s11,s4,3cbc <calc_func+0x6cc>
    3c1c:	00200893          	li	a7,2
    3c20:	091d8463          	beq	s11,a7,3ca8 <calc_func+0x6b8>
    3c24:	00300b93          	li	s7,3
    3c28:	077d8663          	beq	s11,s7,3c94 <calc_func+0x6a4>
    3c2c:	00400293          	li	t0,4
    3c30:	045d8863          	beq	s11,t0,3c80 <calc_func+0x690>
    3c34:	00500f13          	li	t5,5
    3c38:	03ed8a63          	beq	s11,t5,3c6c <calc_func+0x67c>
    3c3c:	00600c13          	li	s8,6
    3c40:	018d8c63          	beq	s11,s8,3c58 <calc_func+0x668>
    3c44:	000b1303          	lh	t1,0(s6)
    3c48:	002b0713          	addi	a4,s6,2
    3c4c:	00478793          	addi	a5,a5,4
    3c50:	02d30533          	mul	a0,t1,a3
    3c54:	fea7ae23          	sw	a0,-4(a5)
    3c58:	00071d03          	lh	s10,0(a4)
    3c5c:	00478793          	addi	a5,a5,4
    3c60:	00270713          	addi	a4,a4,2
    3c64:	02dd0fb3          	mul	t6,s10,a3
    3c68:	fff7ae23          	sw	t6,-4(a5)
    3c6c:	00071583          	lh	a1,0(a4)
    3c70:	00478793          	addi	a5,a5,4
    3c74:	00270713          	addi	a4,a4,2
    3c78:	02d58ab3          	mul	s5,a1,a3
    3c7c:	ff57ae23          	sw	s5,-4(a5)
    3c80:	00071d83          	lh	s11,0(a4)
    3c84:	00478793          	addi	a5,a5,4
    3c88:	00270713          	addi	a4,a4,2
    3c8c:	02dd8a33          	mul	s4,s11,a3
    3c90:	ff47ae23          	sw	s4,-4(a5)
    3c94:	00071883          	lh	a7,0(a4)
    3c98:	00478793          	addi	a5,a5,4
    3c9c:	00270713          	addi	a4,a4,2
    3ca0:	02d88bb3          	mul	s7,a7,a3
    3ca4:	ff77ae23          	sw	s7,-4(a5)
    3ca8:	00071283          	lh	t0,0(a4)
    3cac:	00478793          	addi	a5,a5,4
    3cb0:	00270713          	addi	a4,a4,2
    3cb4:	02d28f33          	mul	t5,t0,a3
    3cb8:	ffe7ae23          	sw	t5,-4(a5)
    3cbc:	00071c03          	lh	s8,0(a4)
    3cc0:	00478793          	addi	a5,a5,4
    3cc4:	00270713          	addi	a4,a4,2
    3cc8:	02dc0333          	mul	t1,s8,a3
    3ccc:	fe67ae23          	sw	t1,-4(a5)
    3cd0:	06e60863          	beq	a2,a4,3d40 <calc_func+0x750>
    3cd4:	00071503          	lh	a0,0(a4)
    3cd8:	00271d03          	lh	s10,2(a4)
    3cdc:	00471d83          	lh	s11,4(a4)
    3ce0:	00671f83          	lh	t6,6(a4)
    3ce4:	00871b83          	lh	s7,8(a4)
    3ce8:	00a71c03          	lh	s8,10(a4)
    3cec:	00c71883          	lh	a7,12(a4)
    3cf0:	00e71583          	lh	a1,14(a4)
    3cf4:	02d50ab3          	mul	s5,a0,a3
    3cf8:	01070713          	addi	a4,a4,16
    3cfc:	02078793          	addi	a5,a5,32
    3d00:	02dd0a33          	mul	s4,s10,a3
    3d04:	ff57a023          	sw	s5,-32(a5)
    3d08:	02dd82b3          	mul	t0,s11,a3
    3d0c:	ff47a223          	sw	s4,-28(a5)
    3d10:	02df8333          	mul	t1,t6,a3
    3d14:	fe57a423          	sw	t0,-24(a5)
    3d18:	02db8f33          	mul	t5,s7,a3
    3d1c:	fe67a623          	sw	t1,-20(a5)
    3d20:	02dc0533          	mul	a0,s8,a3
    3d24:	ffe7a823          	sw	t5,-16(a5)
    3d28:	02d88d33          	mul	s10,a7,a3
    3d2c:	fea7aa23          	sw	a0,-12(a5)
    3d30:	02d58db3          	mul	s11,a1,a3
    3d34:	ffa7ac23          	sw	s10,-8(a5)
    3d38:	ffb7ae23          	sw	s11,-4(a5)
    3d3c:	f8e61ce3          	bne	a2,a4,3cd4 <calc_func+0x6e4>
    3d40:	00108713          	addi	a4,ra,1
    3d44:	009383b3          	add	t2,t2,s1
    3d48:	41db0633          	sub	a2,s6,t4
    3d4c:	01008663          	beq	ra,a6,3d58 <calc_func+0x768>
    3d50:	00070093          	mv	ra,a4
    3d54:	e99ff06f          	j	3bec <calc_func+0x5fc>
    3d58:	01012883          	lw	a7,16(sp)
    3d5c:	01c12083          	lw	ra,28(sp)
    3d60:	40900b33          	neg	s6,s1
    3d64:	41100db3          	neg	s11,a7
    3d68:	41108d33          	sub	s10,ra,a7
    3d6c:	000d0713          	mv	a4,s10
    3d70:	00000793          	li	a5,0
    3d74:	00000313          	li	t1,0
    3d78:	00000e13          	li	t3,0
    3d7c:	00000613          	li	a2,0
    3d80:	003b1593          	slli	a1,s6,0x3
    3d84:	011706b3          	add	a3,a4,a7
    3d88:	40d70eb3          	sub	t4,a4,a3
    3d8c:	ffce8f93          	addi	t6,t4,-4 # ffffeffc <_stack_start+0xffef6ffc>
    3d90:	002fdb93          	srli	s7,t6,0x2
    3d94:	001b8c13          	addi	s8,s7,1
    3d98:	003c7a93          	andi	s5,s8,3
    3d9c:	00068e93          	mv	t4,a3
    3da0:	140a8463          	beqz	s5,3ee8 <calc_func+0x8f8>
    3da4:	00100a13          	li	s4,1
    3da8:	074a8263          	beq	s5,s4,3e0c <calc_func+0x81c>
    3dac:	00200293          	li	t0,2
    3db0:	025a8863          	beq	s5,t0,3de0 <calc_func+0x7f0>
    3db4:	00030f13          	mv	t5,t1
    3db8:	0006a303          	lw	t1,0(a3)
    3dbc:	01079793          	slli	a5,a5,0x10
    3dc0:	0107d393          	srli	t2,a5,0x10
    3dc4:	006e0e33          	add	t3,t3,t1
    3dc8:	1fc94863          	blt	s2,t3,3fb8 <calc_func+0x9c8>
    3dcc:	006f2533          	slt	a0,t5,t1
    3dd0:	00a380b3          	add	ra,t2,a0
    3dd4:	01009b13          	slli	s6,ra,0x10
    3dd8:	410b5793          	srai	a5,s6,0x10
    3ddc:	00468e93          	addi	t4,a3,4
    3de0:	00030f93          	mv	t6,t1
    3de4:	000ea303          	lw	t1,0(t4)
    3de8:	01079b93          	slli	s7,a5,0x10
    3dec:	010bdc13          	srli	s8,s7,0x10
    3df0:	006e0e33          	add	t3,t3,t1
    3df4:	1bc94863          	blt	s2,t3,3fa4 <calc_func+0x9b4>
    3df8:	006faab3          	slt	s5,t6,t1
    3dfc:	015c0a33          	add	s4,s8,s5
    3e00:	010a1293          	slli	t0,s4,0x10
    3e04:	4102d793          	srai	a5,t0,0x10
    3e08:	004e8e93          	addi	t4,t4,4
    3e0c:	00030393          	mv	t2,t1
    3e10:	000ea303          	lw	t1,0(t4)
    3e14:	01079513          	slli	a0,a5,0x10
    3e18:	01055093          	srli	ra,a0,0x10
    3e1c:	006e0e33          	add	t3,t3,t1
    3e20:	17c94463          	blt	s2,t3,3f88 <calc_func+0x998>
    3e24:	0063ab33          	slt	s6,t2,t1
    3e28:	01608fb3          	add	t6,ra,s6
    3e2c:	010f9b93          	slli	s7,t6,0x10
    3e30:	010f9c13          	slli	s8,t6,0x10
    3e34:	010bd513          	srli	a0,s7,0x10
    3e38:	410c5793          	srai	a5,s8,0x10
    3e3c:	004e8e93          	addi	t4,t4,4
    3e40:	0bd71463          	bne	a4,t4,3ee8 <calc_func+0x8f8>
    3e44:	00160a13          	addi	s4,a2,1
    3e48:	40b68733          	sub	a4,a3,a1
    3e4c:	19060063          	beq	a2,a6,3fcc <calc_func+0x9dc>
    3e50:	000a0613          	mv	a2,s4
    3e54:	f31ff06f          	j	3d84 <calc_func+0x794>
    3e58:	004eac03          	lw	s8,4(t4)
    3e5c:	00a78f93          	addi	t6,a5,10
    3e60:	010f9b93          	slli	s7,t6,0x10
    3e64:	410bdb13          	srai	s6,s7,0x10
    3e68:	00000393          	li	t2,0
    3e6c:	010b1e13          	slli	t3,s6,0x10
    3e70:	018380b3          	add	ra,t2,s8
    3e74:	004e8e93          	addi	t4,t4,4
    3e78:	010e5a93          	srli	s5,t3,0x10
    3e7c:	0a195463          	bge	s2,ra,3f24 <calc_func+0x934>
    3e80:	004ea503          	lw	a0,4(t4)
    3e84:	00aa8793          	addi	a5,s5,10
    3e88:	01079393          	slli	t2,a5,0x10
    3e8c:	4103d313          	srai	t1,t2,0x10
    3e90:	00000093          	li	ra,0
    3e94:	01031b13          	slli	s6,t1,0x10
    3e98:	00a08f33          	add	t5,ra,a0
    3e9c:	010b5f93          	srli	t6,s6,0x10
    3ea0:	0be94463          	blt	s2,t5,3f48 <calc_func+0x958>
    3ea4:	00ac2bb3          	slt	s7,s8,a0
    3ea8:	008ea303          	lw	t1,8(t4)
    3eac:	017f8c33          	add	s8,t6,s7
    3eb0:	010c1a93          	slli	s5,s8,0x10
    3eb4:	410ad293          	srai	t0,s5,0x10
    3eb8:	01029793          	slli	a5,t0,0x10
    3ebc:	006f0e33          	add	t3,t5,t1
    3ec0:	0107d393          	srli	t2,a5,0x10
    3ec4:	0bc94463          	blt	s2,t3,3f6c <calc_func+0x97c>
    3ec8:	006520b3          	slt	ra,a0,t1
    3ecc:	00138b33          	add	s6,t2,ra
    3ed0:	010b1513          	slli	a0,s6,0x10
    3ed4:	010b1f93          	slli	t6,s6,0x10
    3ed8:	01055513          	srli	a0,a0,0x10
    3edc:	410fd793          	srai	a5,t6,0x10
    3ee0:	00ce8e93          	addi	t4,t4,12
    3ee4:	f7d700e3          	beq	a4,t4,3e44 <calc_func+0x854>
    3ee8:	000ea283          	lw	t0,0(t4)
    3eec:	01079f13          	slli	t5,a5,0x10
    3ef0:	010f5793          	srli	a5,t5,0x10
    3ef4:	005e03b3          	add	t2,t3,t0
    3ef8:	f67940e3          	blt	s2,t2,3e58 <calc_func+0x868>
    3efc:	00532333          	slt	t1,t1,t0
    3f00:	004eac03          	lw	s8,4(t4)
    3f04:	00678533          	add	a0,a5,t1
    3f08:	01051093          	slli	ra,a0,0x10
    3f0c:	4100db13          	srai	s6,ra,0x10
    3f10:	010b1e13          	slli	t3,s6,0x10
    3f14:	018380b3          	add	ra,t2,s8
    3f18:	004e8e93          	addi	t4,t4,4
    3f1c:	010e5a93          	srli	s5,t3,0x10
    3f20:	f61940e3          	blt	s2,ra,3e80 <calc_func+0x890>
    3f24:	0182aa33          	slt	s4,t0,s8
    3f28:	004ea503          	lw	a0,4(t4)
    3f2c:	014a82b3          	add	t0,s5,s4
    3f30:	01029f13          	slli	t5,t0,0x10
    3f34:	410f5313          	srai	t1,t5,0x10
    3f38:	01031b13          	slli	s6,t1,0x10
    3f3c:	00a08f33          	add	t5,ra,a0
    3f40:	010b5f93          	srli	t6,s6,0x10
    3f44:	f7e950e3          	bge	s2,t5,3ea4 <calc_func+0x8b4>
    3f48:	00af8e13          	addi	t3,t6,10
    3f4c:	008ea303          	lw	t1,8(t4)
    3f50:	010e1a13          	slli	s4,t3,0x10
    3f54:	410a5293          	srai	t0,s4,0x10
    3f58:	00000f13          	li	t5,0
    3f5c:	01029793          	slli	a5,t0,0x10
    3f60:	006f0e33          	add	t3,t5,t1
    3f64:	0107d393          	srli	t2,a5,0x10
    3f68:	f7c950e3          	bge	s2,t3,3ec8 <calc_func+0x8d8>
    3f6c:	00a38b93          	addi	s7,t2,10
    3f70:	010b9c13          	slli	s8,s7,0x10
    3f74:	010b9a93          	slli	s5,s7,0x10
    3f78:	010c5513          	srli	a0,s8,0x10
    3f7c:	410ad793          	srai	a5,s5,0x10
    3f80:	00000e13          	li	t3,0
    3f84:	f5dff06f          	j	3ee0 <calc_func+0x8f0>
    3f88:	00a08e13          	addi	t3,ra,10
    3f8c:	010e1a93          	slli	s5,t3,0x10
    3f90:	010e1a13          	slli	s4,t3,0x10
    3f94:	010ad513          	srli	a0,s5,0x10
    3f98:	410a5793          	srai	a5,s4,0x10
    3f9c:	00000e13          	li	t3,0
    3fa0:	e9dff06f          	j	3e3c <calc_func+0x84c>
    3fa4:	00ac0f13          	addi	t5,s8,10
    3fa8:	010f1793          	slli	a5,t5,0x10
    3fac:	4107d793          	srai	a5,a5,0x10
    3fb0:	00000e13          	li	t3,0
    3fb4:	e55ff06f          	j	3e08 <calc_func+0x818>
    3fb8:	00a38e13          	addi	t3,t2,10
    3fbc:	010e1e93          	slli	t4,t3,0x10
    3fc0:	410ed793          	srai	a5,t4,0x10
    3fc4:	00000e13          	li	t3,0
    3fc8:	e15ff06f          	j	3ddc <calc_func+0x7ec>
    3fcc:	00000593          	li	a1,0
    3fd0:	d35fe0ef          	jal	ra,2d04 <crcu16>
    3fd4:	01c12b03          	lw	s6,28(sp)
    3fd8:	00050693          	mv	a3,a0
    3fdc:	00000593          	li	a1,0
    3fe0:	000d8613          	mv	a2,s11
    3fe4:	000b0513          	mv	a0,s6
    3fe8:	02d12223          	sw	a3,36(sp)
    3fec:	9a1fe0ef          	jal	ra,298c <memset>
    3ff0:	01412383          	lw	t2,20(sp)
    3ff4:	03912623          	sw	s9,44(sp)
    3ff8:	00c12c83          	lw	s9,12(sp)
    3ffc:	008382b3          	add	t0,t2,s0
    4000:	000b0593          	mv	a1,s6
    4004:	00000f93          	li	t6,0
    4008:	02812423          	sw	s0,40(sp)
    400c:	40728633          	sub	a2,t0,t2
    4010:	ffe60f13          	addi	t5,a2,-2
    4014:	001f5313          	srli	t1,t5,0x1
    4018:	00130093          	addi	ra,t1,1
    401c:	001f9513          	slli	a0,t6,0x1
    4020:	0070fb93          	andi	s7,ra,7
    4024:	00ac86b3          	add	a3,s9,a0
    4028:	00038613          	mv	a2,t2
    402c:	00000793          	li	a5,0
    4030:	0c0b8e63          	beqz	s7,410c <calc_func+0xb1c>
    4034:	00100c13          	li	s8,1
    4038:	0b8b8c63          	beq	s7,s8,40f0 <calc_func+0xb00>
    403c:	00200a93          	li	s5,2
    4040:	095b8c63          	beq	s7,s5,40d8 <calc_func+0xae8>
    4044:	00300e13          	li	t3,3
    4048:	07cb8c63          	beq	s7,t3,40c0 <calc_func+0xad0>
    404c:	00400e93          	li	t4,4
    4050:	05db8c63          	beq	s7,t4,40a8 <calc_func+0xab8>
    4054:	00500413          	li	s0,5
    4058:	028b8c63          	beq	s7,s0,4090 <calc_func+0xaa0>
    405c:	00600813          	li	a6,6
    4060:	010b8c63          	beq	s7,a6,4078 <calc_func+0xa88>
    4064:	00069783          	lh	a5,0(a3)
    4068:	00039883          	lh	a7,0(t2)
    406c:	00268693          	addi	a3,a3,2
    4070:	00238613          	addi	a2,t2,2
    4074:	031787b3          	mul	a5,a5,a7
    4078:	00069a03          	lh	s4,0(a3)
    407c:	00061703          	lh	a4,0(a2)
    4080:	00268693          	addi	a3,a3,2
    4084:	00260613          	addi	a2,a2,2
    4088:	02ea0b33          	mul	s6,s4,a4
    408c:	016787b3          	add	a5,a5,s6
    4090:	00069f03          	lh	t5,0(a3)
    4094:	00061303          	lh	t1,0(a2)
    4098:	00268693          	addi	a3,a3,2
    409c:	00260613          	addi	a2,a2,2
    40a0:	026f00b3          	mul	ra,t5,t1
    40a4:	001787b3          	add	a5,a5,ra
    40a8:	00069b83          	lh	s7,0(a3)
    40ac:	00061503          	lh	a0,0(a2)
    40b0:	00268693          	addi	a3,a3,2
    40b4:	00260613          	addi	a2,a2,2
    40b8:	02ab8c33          	mul	s8,s7,a0
    40bc:	018787b3          	add	a5,a5,s8
    40c0:	00069a83          	lh	s5,0(a3)
    40c4:	00061e03          	lh	t3,0(a2)
    40c8:	00268693          	addi	a3,a3,2
    40cc:	00260613          	addi	a2,a2,2
    40d0:	03ca8eb3          	mul	t4,s5,t3
    40d4:	01d787b3          	add	a5,a5,t4
    40d8:	00069403          	lh	s0,0(a3)
    40dc:	00061803          	lh	a6,0(a2)
    40e0:	00268693          	addi	a3,a3,2
    40e4:	00260613          	addi	a2,a2,2
    40e8:	030408b3          	mul	a7,s0,a6
    40ec:	011787b3          	add	a5,a5,a7
    40f0:	00069a03          	lh	s4,0(a3)
    40f4:	00061703          	lh	a4,0(a2)
    40f8:	00260613          	addi	a2,a2,2
    40fc:	00268693          	addi	a3,a3,2
    4100:	02ea0b33          	mul	s6,s4,a4
    4104:	016787b3          	add	a5,a5,s6
    4108:	08c28863          	beq	t0,a2,4198 <calc_func+0xba8>
    410c:	00069f03          	lh	t5,0(a3)
    4110:	00061303          	lh	t1,0(a2)
    4114:	00261c03          	lh	s8,2(a2)
    4118:	00269a83          	lh	s5,2(a3)
    411c:	026f0733          	mul	a4,t5,t1
    4120:	00469083          	lh	ra,4(a3)
    4124:	00461b83          	lh	s7,4(a2)
    4128:	00669e83          	lh	t4,6(a3)
    412c:	00661b03          	lh	s6,6(a2)
    4130:	00869303          	lh	t1,8(a3)
    4134:	00861a03          	lh	s4,8(a2)
    4138:	00a69883          	lh	a7,10(a3)
    413c:	00a61403          	lh	s0,10(a2)
    4140:	00c69803          	lh	a6,12(a3)
    4144:	038a8ab3          	mul	s5,s5,s8
    4148:	00c61f03          	lh	t5,12(a2)
    414c:	00e69503          	lh	a0,14(a3)
    4150:	00e61e03          	lh	t3,14(a2)
    4154:	00e787b3          	add	a5,a5,a4
    4158:	01060613          	addi	a2,a2,16
    415c:	01068693          	addi	a3,a3,16
    4160:	03708c33          	mul	s8,ra,s7
    4164:	015780b3          	add	ra,a5,s5
    4168:	036e8bb3          	mul	s7,t4,s6
    416c:	01808eb3          	add	t4,ra,s8
    4170:	03430b33          	mul	s6,t1,s4
    4174:	017e8333          	add	t1,t4,s7
    4178:	02888733          	mul	a4,a7,s0
    417c:	01630a33          	add	s4,t1,s6
    4180:	03e808b3          	mul	a7,a6,t5
    4184:	00ea0433          	add	s0,s4,a4
    4188:	03c50833          	mul	a6,a0,t3
    418c:	01140f33          	add	t5,s0,a7
    4190:	010f07b3          	add	a5,t5,a6
    4194:	f6c29ce3          	bne	t0,a2,410c <calc_func+0xb1c>
    4198:	00f5a023          	sw	a5,0(a1)
    419c:	00458593          	addi	a1,a1,4
    41a0:	009f8fb3          	add	t6,t6,s1
    41a4:	e6bd14e3          	bne	s10,a1,400c <calc_func+0xa1c>
    41a8:	02812403          	lw	s0,40(sp)
    41ac:	02c12c83          	lw	s9,44(sp)
    41b0:	01c12703          	lw	a4,28(sp)
    41b4:	00000693          	li	a3,0
    41b8:	00000f13          	li	t5,0
    41bc:	00000893          	li	a7,0
    41c0:	00000513          	li	a0,0
    41c4:	00000613          	li	a2,0
    41c8:	00269d13          	slli	s10,a3,0x2
    41cc:	01a703b3          	add	t2,a4,s10
    41d0:	00088293          	mv	t0,a7
    41d4:	0003a883          	lw	a7,0(t2)
    41d8:	fff48593          	addi	a1,s1,-1
    41dc:	010f1e13          	slli	t3,t5,0x10
    41e0:	01150533          	add	a0,a0,a7
    41e4:	0035ff93          	andi	t6,a1,3
    41e8:	010e5a93          	srli	s5,t3,0x10
    41ec:	50a95ee3          	bge	s2,a0,4f08 <calc_func+0x1918>
    41f0:	00aa8513          	addi	a0,s5,10
    41f4:	01051e93          	slli	t4,a0,0x10
    41f8:	01051b13          	slli	s6,a0,0x10
    41fc:	010eda13          	srli	s4,t4,0x10
    4200:	410b5f13          	srai	t5,s6,0x10
    4204:	00000513          	li	a0,0
    4208:	00100313          	li	t1,1
    420c:	00438593          	addi	a1,t2,4
    4210:	1e937c63          	bgeu	t1,s1,4408 <calc_func+0xe18>
    4214:	140f8463          	beqz	t6,435c <calc_func+0xd6c>
    4218:	066f8663          	beq	t6,t1,4284 <calc_func+0xc94>
    421c:	00200a13          	li	s4,2
    4220:	034f8a63          	beq	t6,s4,4254 <calc_func+0xc64>
    4224:	00088813          	mv	a6,a7
    4228:	0043a883          	lw	a7,4(t2)
    422c:	010f1f13          	slli	t5,t5,0x10
    4230:	010f5d13          	srli	s10,t5,0x10
    4234:	01150533          	add	a0,a0,a7
    4238:	5aa942e3          	blt	s2,a0,4fdc <calc_func+0x19ec>
    423c:	011823b3          	slt	t2,a6,a7
    4240:	007d02b3          	add	t0,s10,t2
    4244:	01029f93          	slli	t6,t0,0x10
    4248:	410fdf13          	srai	t5,t6,0x10
    424c:	00130313          	addi	t1,t1,1
    4250:	00458593          	addi	a1,a1,4
    4254:	00088c13          	mv	s8,a7
    4258:	0005a883          	lw	a7,0(a1)
    425c:	010f1793          	slli	a5,t5,0x10
    4260:	0107d093          	srli	ra,a5,0x10
    4264:	01150533          	add	a0,a0,a7
    4268:	50a948e3          	blt	s2,a0,4f78 <calc_func+0x1988>
    426c:	011c2bb3          	slt	s7,s8,a7
    4270:	01708eb3          	add	t4,ra,s7
    4274:	010e9b13          	slli	s6,t4,0x10
    4278:	410b5f13          	srai	t5,s6,0x10
    427c:	00130313          	addi	t1,t1,1
    4280:	00458593          	addi	a1,a1,4
    4284:	00088813          	mv	a6,a7
    4288:	0005a883          	lw	a7,0(a1)
    428c:	010f1f13          	slli	t5,t5,0x10
    4290:	010f5d13          	srli	s10,t5,0x10
    4294:	01150533          	add	a0,a0,a7
    4298:	4ca942e3          	blt	s2,a0,4f5c <calc_func+0x196c>
    429c:	011823b3          	slt	t2,a6,a7
    42a0:	007d02b3          	add	t0,s10,t2
    42a4:	01029f93          	slli	t6,t0,0x10
    42a8:	01029e13          	slli	t3,t0,0x10
    42ac:	010fda13          	srli	s4,t6,0x10
    42b0:	410e5f13          	srai	t5,t3,0x10
    42b4:	00130313          	addi	t1,t1,1
    42b8:	00458593          	addi	a1,a1,4
    42bc:	0a936063          	bltu	t1,s1,435c <calc_func+0xd6c>
    42c0:	1480006f          	j	4408 <calc_func+0xe18>
    42c4:	0045a383          	lw	t2,4(a1)
    42c8:	00ae8f13          	addi	t5,t4,10
    42cc:	010f1d13          	slli	s10,t5,0x10
    42d0:	410d5813          	srai	a6,s10,0x10
    42d4:	00000b13          	li	s6,0
    42d8:	01081293          	slli	t0,a6,0x10
    42dc:	007b0eb3          	add	t4,s6,t2
    42e0:	00130313          	addi	t1,t1,1
    42e4:	00458593          	addi	a1,a1,4
    42e8:	0102df93          	srli	t6,t0,0x10
    42ec:	0bd95863          	bge	s2,t4,439c <calc_func+0xdac>
    42f0:	00af8793          	addi	a5,t6,10
    42f4:	0045ab03          	lw	s6,4(a1)
    42f8:	01079093          	slli	ra,a5,0x10
    42fc:	4100db93          	srai	s7,ra,0x10
    4300:	00000e93          	li	t4,0
    4304:	010b9893          	slli	a7,s7,0x10
    4308:	016e8fb3          	add	t6,t4,s6
    430c:	0108da13          	srli	s4,a7,0x10
    4310:	0bf94863          	blt	s2,t6,43c0 <calc_func+0xdd0>
    4314:	0163a833          	slt	a6,t2,s6
    4318:	0085a883          	lw	a7,8(a1)
    431c:	010a0f33          	add	t5,s4,a6
    4320:	010f1d13          	slli	s10,t5,0x10
    4324:	410d5293          	srai	t0,s10,0x10
    4328:	01029e13          	slli	t3,t0,0x10
    432c:	011f8533          	add	a0,t6,a7
    4330:	010e5a93          	srli	s5,t3,0x10
    4334:	0aa94863          	blt	s2,a0,43e4 <calc_func+0xdf4>
    4338:	011b2c33          	slt	s8,s6,a7
    433c:	018a87b3          	add	a5,s5,s8
    4340:	01079093          	slli	ra,a5,0x10
    4344:	01079b93          	slli	s7,a5,0x10
    4348:	00330313          	addi	t1,t1,3
    434c:	0100da13          	srli	s4,ra,0x10
    4350:	410bdf13          	srai	t5,s7,0x10
    4354:	00c58593          	addi	a1,a1,12
    4358:	0a937863          	bgeu	t1,s1,4408 <calc_func+0xe18>
    435c:	0005a083          	lw	ra,0(a1)
    4360:	010f1b93          	slli	s7,t5,0x10
    4364:	010bde93          	srli	t4,s7,0x10
    4368:	00150b33          	add	s6,a0,ra
    436c:	f5694ce3          	blt	s2,s6,42c4 <calc_func+0xcd4>
    4370:	0018a8b3          	slt	a7,a7,ra
    4374:	0045a383          	lw	t2,4(a1)
    4378:	011e8533          	add	a0,t4,a7
    437c:	01051a13          	slli	s4,a0,0x10
    4380:	410a5813          	srai	a6,s4,0x10
    4384:	01081293          	slli	t0,a6,0x10
    4388:	007b0eb3          	add	t4,s6,t2
    438c:	00130313          	addi	t1,t1,1
    4390:	00458593          	addi	a1,a1,4
    4394:	0102df93          	srli	t6,t0,0x10
    4398:	f5d94ce3          	blt	s2,t4,42f0 <calc_func+0xd00>
    439c:	0070ae33          	slt	t3,ra,t2
    43a0:	01cf8ab3          	add	s5,t6,t3
    43a4:	0045ab03          	lw	s6,4(a1)
    43a8:	010a9c13          	slli	s8,s5,0x10
    43ac:	410c5b93          	srai	s7,s8,0x10
    43b0:	010b9893          	slli	a7,s7,0x10
    43b4:	016e8fb3          	add	t6,t4,s6
    43b8:	0108da13          	srli	s4,a7,0x10
    43bc:	f5f95ce3          	bge	s2,t6,4314 <calc_func+0xd24>
    43c0:	00aa0513          	addi	a0,s4,10
    43c4:	0085a883          	lw	a7,8(a1)
    43c8:	01051393          	slli	t2,a0,0x10
    43cc:	4103d293          	srai	t0,t2,0x10
    43d0:	00000f93          	li	t6,0
    43d4:	01029e13          	slli	t3,t0,0x10
    43d8:	011f8533          	add	a0,t6,a7
    43dc:	010e5a93          	srli	s5,t3,0x10
    43e0:	f4a95ce3          	bge	s2,a0,4338 <calc_func+0xd48>
    43e4:	00aa8e93          	addi	t4,s5,10
    43e8:	010e9b13          	slli	s6,t4,0x10
    43ec:	010e9813          	slli	a6,t4,0x10
    43f0:	00330313          	addi	t1,t1,3
    43f4:	010b5a13          	srli	s4,s6,0x10
    43f8:	41085f13          	srai	t5,a6,0x10
    43fc:	00000513          	li	a0,0
    4400:	00c58593          	addi	a1,a1,12
    4404:	f4936ce3          	bltu	t1,s1,435c <calc_func+0xd6c>
    4408:	00160613          	addi	a2,a2,1
    440c:	009686b3          	add	a3,a3,s1
    4410:	da966ce3          	bltu	a2,s1,41c8 <calc_func+0xbd8>
    4414:	02412583          	lw	a1,36(sp)
    4418:	000a0513          	mv	a0,s4
    441c:	00400b13          	li	s6,4
    4420:	8e5fe0ef          	jal	ra,2d04 <crcu16>
    4424:	02a12223          	sw	a0,36(sp)
    4428:	000c8463          	beqz	s9,4430 <calc_func+0xe40>
    442c:	000d8b13          	mv	s6,s11
    4430:	01c12a83          	lw	s5,28(sp)
    4434:	00000d93          	li	s11,0
    4438:	03312623          	sw	s3,44(sp)
    443c:	00000a13          	li	s4,0
    4440:	03212423          	sw	s2,40(sp)
    4444:	000d8993          	mv	s3,s11
    4448:	000b0613          	mv	a2,s6
    444c:	00000593          	li	a1,0
    4450:	000a8513          	mv	a0,s5
    4454:	d38fe0ef          	jal	ra,298c <memset>
    4458:	00c12d03          	lw	s10,12(sp)
    445c:	01412503          	lw	a0,20(sp)
    4460:	001a1913          	slli	s2,s4,0x1
    4464:	012d03b3          	add	t2,s10,s2
    4468:	000a8293          	mv	t0,s5
    446c:	00000f93          	li	t6,0
    4470:	00039883          	lh	a7,0(t2)
    4474:	00051e03          	lh	t3,0(a0)
    4478:	fff48c13          	addi	s8,s1,-1
    447c:	00100613          	li	a2,1
    4480:	03c887b3          	mul	a5,a7,t3
    4484:	007c7093          	andi	ra,s8,7
    4488:	00238713          	addi	a4,t2,2
    448c:	008506b3          	add	a3,a0,s0
    4490:	1a967463          	bgeu	a2,s1,4638 <calc_func+0x1048>
    4494:	0e008c63          	beqz	ra,458c <calc_func+0xf9c>
    4498:	0cc08a63          	beq	ra,a2,456c <calc_func+0xf7c>
    449c:	00200b93          	li	s7,2
    44a0:	0b708863          	beq	ra,s7,4550 <calc_func+0xf60>
    44a4:	00300e93          	li	t4,3
    44a8:	09d08663          	beq	ra,t4,4534 <calc_func+0xf44>
    44ac:	00400813          	li	a6,4
    44b0:	07008463          	beq	ra,a6,4518 <calc_func+0xf28>
    44b4:	00500f13          	li	t5,5
    44b8:	05e08263          	beq	ra,t5,44fc <calc_func+0xf0c>
    44bc:	00600313          	li	t1,6
    44c0:	02608063          	beq	ra,t1,44e0 <calc_func+0xef0>
    44c4:	00069c83          	lh	s9,0(a3)
    44c8:	00239583          	lh	a1,2(t2)
    44cc:	00200613          	li	a2,2
    44d0:	00438713          	addi	a4,t2,4
    44d4:	03958db3          	mul	s11,a1,s9
    44d8:	008686b3          	add	a3,a3,s0
    44dc:	01b787b3          	add	a5,a5,s11
    44e0:	00071903          	lh	s2,0(a4)
    44e4:	00069d03          	lh	s10,0(a3)
    44e8:	00160613          	addi	a2,a2,1
    44ec:	00270713          	addi	a4,a4,2
    44f0:	03a908b3          	mul	a7,s2,s10
    44f4:	008686b3          	add	a3,a3,s0
    44f8:	011787b3          	add	a5,a5,a7
    44fc:	00071e03          	lh	t3,0(a4)
    4500:	00069c03          	lh	s8,0(a3)
    4504:	00160613          	addi	a2,a2,1
    4508:	00270713          	addi	a4,a4,2
    450c:	038e00b3          	mul	ra,t3,s8
    4510:	008686b3          	add	a3,a3,s0
    4514:	001787b3          	add	a5,a5,ra
    4518:	00071b83          	lh	s7,0(a4)
    451c:	00069e83          	lh	t4,0(a3)
    4520:	00160613          	addi	a2,a2,1
    4524:	00270713          	addi	a4,a4,2
    4528:	03db8833          	mul	a6,s7,t4
    452c:	008686b3          	add	a3,a3,s0
    4530:	010787b3          	add	a5,a5,a6
    4534:	00071f03          	lh	t5,0(a4)
    4538:	00069303          	lh	t1,0(a3)
    453c:	00160613          	addi	a2,a2,1
    4540:	00270713          	addi	a4,a4,2
    4544:	026f0cb3          	mul	s9,t5,t1
    4548:	008686b3          	add	a3,a3,s0
    454c:	019787b3          	add	a5,a5,s9
    4550:	00071583          	lh	a1,0(a4)
    4554:	00069d83          	lh	s11,0(a3)
    4558:	00160613          	addi	a2,a2,1
    455c:	00270713          	addi	a4,a4,2
    4560:	03b58933          	mul	s2,a1,s11
    4564:	008686b3          	add	a3,a3,s0
    4568:	012787b3          	add	a5,a5,s2
    456c:	00071d03          	lh	s10,0(a4)
    4570:	00069883          	lh	a7,0(a3)
    4574:	00160613          	addi	a2,a2,1
    4578:	00270713          	addi	a4,a4,2
    457c:	031d0e33          	mul	t3,s10,a7
    4580:	008686b3          	add	a3,a3,s0
    4584:	01c787b3          	add	a5,a5,t3
    4588:	0a967863          	bgeu	a2,s1,4638 <calc_func+0x1048>
    458c:	00868c33          	add	s8,a3,s0
    4590:	00071083          	lh	ra,0(a4)
    4594:	00069b83          	lh	s7,0(a3)
    4598:	00271f03          	lh	t5,2(a4)
    459c:	000c1c83          	lh	s9,0(s8)
    45a0:	03708db3          	mul	s11,ra,s7
    45a4:	008c0eb3          	add	t4,s8,s0
    45a8:	008e8833          	add	a6,t4,s0
    45ac:	000e9d03          	lh	s10,0(t4)
    45b0:	00471903          	lh	s2,4(a4)
    45b4:	008805b3          	add	a1,a6,s0
    45b8:	00081c03          	lh	s8,0(a6)
    45bc:	00671e83          	lh	t4,6(a4)
    45c0:	00871303          	lh	t1,8(a4)
    45c4:	00059b83          	lh	s7,0(a1)
    45c8:	039f0cb3          	mul	s9,t5,s9
    45cc:	00858e33          	add	t3,a1,s0
    45d0:	008e05b3          	add	a1,t3,s0
    45d4:	00a71883          	lh	a7,10(a4)
    45d8:	000e1083          	lh	ra,0(t3)
    45dc:	00c71803          	lh	a6,12(a4)
    45e0:	00059f03          	lh	t5,0(a1)
    45e4:	008586b3          	add	a3,a1,s0
    45e8:	00069e03          	lh	t3,0(a3)
    45ec:	00e71583          	lh	a1,14(a4)
    45f0:	03a90933          	mul	s2,s2,s10
    45f4:	01b787b3          	add	a5,a5,s11
    45f8:	01978d33          	add	s10,a5,s9
    45fc:	00860613          	addi	a2,a2,8
    4600:	01070713          	addi	a4,a4,16
    4604:	008686b3          	add	a3,a3,s0
    4608:	038e8eb3          	mul	t4,t4,s8
    460c:	012d0db3          	add	s11,s10,s2
    4610:	03730c33          	mul	s8,t1,s7
    4614:	01dd8333          	add	t1,s11,t4
    4618:	02188bb3          	mul	s7,a7,ra
    461c:	018308b3          	add	a7,t1,s8
    4620:	03e800b3          	mul	ra,a6,t5
    4624:	01788833          	add	a6,a7,s7
    4628:	03c58cb3          	mul	s9,a1,t3
    462c:	00180f33          	add	t5,a6,ra
    4630:	019f07b3          	add	a5,t5,s9
    4634:	f4966ce3          	bltu	a2,s1,458c <calc_func+0xf9c>
    4638:	00f2a023          	sw	a5,0(t0)
    463c:	001f8f93          	addi	t6,t6,1
    4640:	00428293          	addi	t0,t0,4
    4644:	00250513          	addi	a0,a0,2
    4648:	e29fe4e3          	bltu	t6,s1,4470 <calc_func+0xe80>
    464c:	01012383          	lw	t2,16(sp)
    4650:	00198993          	addi	s3,s3,1
    4654:	009a0a33          	add	s4,s4,s1
    4658:	407a8ab3          	sub	s5,s5,t2
    465c:	de99e6e3          	bltu	s3,s1,4448 <calc_func+0xe58>
    4660:	02812903          	lw	s2,40(sp)
    4664:	02c12983          	lw	s3,44(sp)
    4668:	01c12283          	lw	t0,28(sp)
    466c:	00000a93          	li	s5,0
    4670:	00000c13          	li	s8,0
    4674:	00000813          	li	a6,0
    4678:	00000b93          	li	s7,0
    467c:	00000a13          	li	s4,0
    4680:	002a9f93          	slli	t6,s5,0x2
    4684:	01f28633          	add	a2,t0,t6
    4688:	00080713          	mv	a4,a6
    468c:	00062803          	lw	a6,0(a2)
    4690:	fff48693          	addi	a3,s1,-1
    4694:	010c1593          	slli	a1,s8,0x10
    4698:	010b8bb3          	add	s7,s7,a6
    469c:	0036fe13          	andi	t3,a3,3
    46a0:	0105d793          	srli	a5,a1,0x10
    46a4:	037956e3          	bge	s2,s7,4ed0 <calc_func+0x18e0>
    46a8:	00a78513          	addi	a0,a5,10
    46ac:	01051b93          	slli	s7,a0,0x10
    46b0:	01051313          	slli	t1,a0,0x10
    46b4:	410bdc13          	srai	s8,s7,0x10
    46b8:	01035d93          	srli	s11,t1,0x10
    46bc:	00000b93          	li	s7,0
    46c0:	00100313          	li	t1,1
    46c4:	00460593          	addi	a1,a2,4
    46c8:	1e937c63          	bgeu	t1,s1,48c0 <calc_func+0x12d0>
    46cc:	140e0463          	beqz	t3,4814 <calc_func+0x1224>
    46d0:	066e0663          	beq	t3,t1,473c <calc_func+0x114c>
    46d4:	00200893          	li	a7,2
    46d8:	031e0a63          	beq	t3,a7,470c <calc_func+0x111c>
    46dc:	00080093          	mv	ra,a6
    46e0:	00462803          	lw	a6,4(a2)
    46e4:	010c1c93          	slli	s9,s8,0x10
    46e8:	010cdf13          	srli	t5,s9,0x10
    46ec:	010b8bb3          	add	s7,s7,a6
    46f0:	0d794ce3          	blt	s2,s7,4fc8 <calc_func+0x19d8>
    46f4:	0100a3b3          	slt	t2,ra,a6
    46f8:	007f0fb3          	add	t6,t5,t2
    46fc:	010f9613          	slli	a2,t6,0x10
    4700:	41065c13          	srai	s8,a2,0x10
    4704:	00130313          	addi	t1,t1,1
    4708:	00458593          	addi	a1,a1,4
    470c:	00080e13          	mv	t3,a6
    4710:	0005a803          	lw	a6,0(a1)
    4714:	010c1793          	slli	a5,s8,0x10
    4718:	0107dd13          	srli	s10,a5,0x10
    471c:	010b8bb3          	add	s7,s7,a6
    4720:	097940e3          	blt	s2,s7,4fa0 <calc_func+0x19b0>
    4724:	010e2eb3          	slt	t4,t3,a6
    4728:	01dd0db3          	add	s11,s10,t4
    472c:	010d9c13          	slli	s8,s11,0x10
    4730:	410c5c13          	srai	s8,s8,0x10
    4734:	00130313          	addi	t1,t1,1
    4738:	00458593          	addi	a1,a1,4
    473c:	00080893          	mv	a7,a6
    4740:	0005a803          	lw	a6,0(a1)
    4744:	010c1093          	slli	ra,s8,0x10
    4748:	0100dc93          	srli	s9,ra,0x10
    474c:	010b8bb3          	add	s7,s7,a6
    4750:	7d794a63          	blt	s2,s7,4f24 <calc_func+0x1934>
    4754:	0108af33          	slt	t5,a7,a6
    4758:	01ec83b3          	add	t2,s9,t5
    475c:	01039f93          	slli	t6,t2,0x10
    4760:	01039613          	slli	a2,t2,0x10
    4764:	010fdd93          	srli	s11,t6,0x10
    4768:	41065c13          	srai	s8,a2,0x10
    476c:	00130313          	addi	t1,t1,1
    4770:	00458593          	addi	a1,a1,4
    4774:	0a936063          	bltu	t1,s1,4814 <calc_func+0x1224>
    4778:	1480006f          	j	48c0 <calc_func+0x12d0>
    477c:	0045ac83          	lw	s9,4(a1)
    4780:	00ae8893          	addi	a7,t4,10
    4784:	01089093          	slli	ra,a7,0x10
    4788:	4100db93          	srai	s7,ra,0x10
    478c:	00000d93          	li	s11,0
    4790:	010b9f13          	slli	t5,s7,0x10
    4794:	019d8eb3          	add	t4,s11,s9
    4798:	00130313          	addi	t1,t1,1
    479c:	00458593          	addi	a1,a1,4
    47a0:	010f5393          	srli	t2,t5,0x10
    47a4:	0bd95863          	bge	s2,t4,4854 <calc_func+0x1264>
    47a8:	0045ad83          	lw	s11,4(a1)
    47ac:	00a38693          	addi	a3,t2,10
    47b0:	01069e13          	slli	t3,a3,0x10
    47b4:	410e5d13          	srai	s10,t3,0x10
    47b8:	00000e93          	li	t4,0
    47bc:	010d1793          	slli	a5,s10,0x10
    47c0:	01be8f33          	add	t5,t4,s11
    47c4:	0107dc13          	srli	s8,a5,0x10
    47c8:	0be94863          	blt	s2,t5,4878 <calc_func+0x1288>
    47cc:	01bca833          	slt	a6,s9,s11
    47d0:	010c0bb3          	add	s7,s8,a6
    47d4:	0085a803          	lw	a6,8(a1)
    47d8:	010b9893          	slli	a7,s7,0x10
    47dc:	4108dc93          	srai	s9,a7,0x10
    47e0:	010c9393          	slli	t2,s9,0x10
    47e4:	010f0bb3          	add	s7,t5,a6
    47e8:	0103df93          	srli	t6,t2,0x10
    47ec:	0b794863          	blt	s2,s7,489c <calc_func+0x12ac>
    47f0:	010da633          	slt	a2,s11,a6
    47f4:	00cf8733          	add	a4,t6,a2
    47f8:	01071693          	slli	a3,a4,0x10
    47fc:	01071e13          	slli	t3,a4,0x10
    4800:	00330313          	addi	t1,t1,3
    4804:	0106dd93          	srli	s11,a3,0x10
    4808:	410e5c13          	srai	s8,t3,0x10
    480c:	00c58593          	addi	a1,a1,12
    4810:	0a937863          	bgeu	t1,s1,48c0 <calc_func+0x12d0>
    4814:	0005ad03          	lw	s10,0(a1)
    4818:	010c1793          	slli	a5,s8,0x10
    481c:	0107de93          	srli	t4,a5,0x10
    4820:	01ab8db3          	add	s11,s7,s10
    4824:	f5b94ce3          	blt	s2,s11,477c <calc_func+0x118c>
    4828:	01a82833          	slt	a6,a6,s10
    482c:	0045ac83          	lw	s9,4(a1)
    4830:	010e8c33          	add	s8,t4,a6
    4834:	010c1513          	slli	a0,s8,0x10
    4838:	41055b93          	srai	s7,a0,0x10
    483c:	010b9f13          	slli	t5,s7,0x10
    4840:	019d8eb3          	add	t4,s11,s9
    4844:	00130313          	addi	t1,t1,1
    4848:	00458593          	addi	a1,a1,4
    484c:	010f5393          	srli	t2,t5,0x10
    4850:	f5d94ce3          	blt	s2,t4,47a8 <calc_func+0x11b8>
    4854:	019d2fb3          	slt	t6,s10,s9
    4858:	0045ad83          	lw	s11,4(a1)
    485c:	01f38633          	add	a2,t2,t6
    4860:	01061713          	slli	a4,a2,0x10
    4864:	41075d13          	srai	s10,a4,0x10
    4868:	010d1793          	slli	a5,s10,0x10
    486c:	01be8f33          	add	t5,t4,s11
    4870:	0107dc13          	srli	s8,a5,0x10
    4874:	f5e95ce3          	bge	s2,t5,47cc <calc_func+0x11dc>
    4878:	0085a803          	lw	a6,8(a1)
    487c:	00ac0513          	addi	a0,s8,10
    4880:	01051093          	slli	ra,a0,0x10
    4884:	4100dc93          	srai	s9,ra,0x10
    4888:	00000f13          	li	t5,0
    488c:	010c9393          	slli	t2,s9,0x10
    4890:	010f0bb3          	add	s7,t5,a6
    4894:	0103df93          	srli	t6,t2,0x10
    4898:	f5795ce3          	bge	s2,s7,47f0 <calc_func+0x1200>
    489c:	00af8d13          	addi	s10,t6,10
    48a0:	010d1e93          	slli	t4,s10,0x10
    48a4:	010d1793          	slli	a5,s10,0x10
    48a8:	00330313          	addi	t1,t1,3
    48ac:	010edd93          	srli	s11,t4,0x10
    48b0:	4107dc13          	srai	s8,a5,0x10
    48b4:	00000b93          	li	s7,0
    48b8:	00c58593          	addi	a1,a1,12
    48bc:	f4936ce3          	bltu	t1,s1,4814 <calc_func+0x1224>
    48c0:	001a0a13          	addi	s4,s4,1
    48c4:	009a8ab3          	add	s5,s5,s1
    48c8:	da9a6ce3          	bltu	s4,s1,4680 <calc_func+0x1090>
    48cc:	02412583          	lw	a1,36(sp)
    48d0:	000d8513          	mv	a0,s11
    48d4:	00000a93          	li	s5,0
    48d8:	c2cfe0ef          	jal	ra,2d04 <crcu16>
    48dc:	01c12283          	lw	t0,28(sp)
    48e0:	00c12c03          	lw	s8,12(sp)
    48e4:	01412c83          	lw	s9,20(sp)
    48e8:	01012d03          	lw	s10,16(sp)
    48ec:	00050d93          	mv	s11,a0
    48f0:	00000a13          	li	s4,0
    48f4:	000b0613          	mv	a2,s6
    48f8:	00000593          	li	a1,0
    48fc:	00028513          	mv	a0,t0
    4900:	88cfe0ef          	jal	ra,298c <memset>
    4904:	001a9893          	slli	a7,s5,0x1
    4908:	00050e93          	mv	t4,a0
    490c:	011c0fb3          	add	t6,s8,a7
    4910:	000c8b93          	mv	s7,s9
    4914:	00050f13          	mv	t5,a0
    4918:	00000e13          	li	t3,0
    491c:	000f9503          	lh	a0,0(t6)
    4920:	000b9083          	lh	ra,0(s7)
    4924:	fff48813          	addi	a6,s1,-1
    4928:	00100893          	li	a7,1
    492c:	021503b3          	mul	t2,a0,ra
    4930:	00387613          	andi	a2,a6,3
    4934:	008b86b3          	add	a3,s7,s0
    4938:	002f8813          	addi	a6,t6,2
    493c:	4023d793          	srai	a5,t2,0x2
    4940:	4053d713          	srai	a4,t2,0x5
    4944:	00f7f313          	andi	t1,a5,15
    4948:	07f77593          	andi	a1,a4,127
    494c:	02b307b3          	mul	a5,t1,a1
    4950:	1498fa63          	bgeu	a7,s1,4aa4 <calc_func+0x14b4>
    4954:	0a060263          	beqz	a2,49f8 <calc_func+0x1408>
    4958:	07160663          	beq	a2,a7,49c4 <calc_func+0x13d4>
    495c:	00200293          	li	t0,2
    4960:	02560a63          	beq	a2,t0,4994 <calc_func+0x13a4>
    4964:	00069503          	lh	a0,0(a3)
    4968:	002f9083          	lh	ra,2(t6)
    496c:	00200893          	li	a7,2
    4970:	004f8813          	addi	a6,t6,4
    4974:	02a083b3          	mul	t2,ra,a0
    4978:	008686b3          	add	a3,a3,s0
    497c:	4023d613          	srai	a2,t2,0x2
    4980:	4053d713          	srai	a4,t2,0x5
    4984:	00f67313          	andi	t1,a2,15
    4988:	07f77593          	andi	a1,a4,127
    498c:	02b302b3          	mul	t0,t1,a1
    4990:	005787b3          	add	a5,a5,t0
    4994:	00081503          	lh	a0,0(a6)
    4998:	00069083          	lh	ra,0(a3)
    499c:	00188893          	addi	a7,a7,1
    49a0:	00280813          	addi	a6,a6,2
    49a4:	021503b3          	mul	t2,a0,ra
    49a8:	008686b3          	add	a3,a3,s0
    49ac:	4023d613          	srai	a2,t2,0x2
    49b0:	4053d713          	srai	a4,t2,0x5
    49b4:	00f67313          	andi	t1,a2,15
    49b8:	07f77593          	andi	a1,a4,127
    49bc:	02b302b3          	mul	t0,t1,a1
    49c0:	005787b3          	add	a5,a5,t0
    49c4:	00081503          	lh	a0,0(a6)
    49c8:	00069083          	lh	ra,0(a3)
    49cc:	00188893          	addi	a7,a7,1
    49d0:	00280813          	addi	a6,a6,2
    49d4:	021503b3          	mul	t2,a0,ra
    49d8:	008686b3          	add	a3,a3,s0
    49dc:	4023d613          	srai	a2,t2,0x2
    49e0:	4053d713          	srai	a4,t2,0x5
    49e4:	00f67313          	andi	t1,a2,15
    49e8:	07f77593          	andi	a1,a4,127
    49ec:	02b302b3          	mul	t0,t1,a1
    49f0:	005787b3          	add	a5,a5,t0
    49f4:	0a98f863          	bgeu	a7,s1,4aa4 <calc_func+0x14b4>
    49f8:	008680b3          	add	ra,a3,s0
    49fc:	00069383          	lh	t2,0(a3)
    4a00:	00081703          	lh	a4,0(a6)
    4a04:	00009303          	lh	t1,0(ra)
    4a08:	00808633          	add	a2,ra,s0
    4a0c:	00281503          	lh	a0,2(a6)
    4a10:	00061083          	lh	ra,0(a2)
    4a14:	008606b3          	add	a3,a2,s0
    4a18:	00481583          	lh	a1,4(a6)
    4a1c:	02770733          	mul	a4,a4,t2
    4a20:	00681603          	lh	a2,6(a6)
    4a24:	00069383          	lh	t2,0(a3)
    4a28:	00488893          	addi	a7,a7,4
    4a2c:	00880813          	addi	a6,a6,8
    4a30:	008686b3          	add	a3,a3,s0
    4a34:	02650533          	mul	a0,a0,t1
    4a38:	40275293          	srai	t0,a4,0x2
    4a3c:	40575313          	srai	t1,a4,0x5
    4a40:	00f2f293          	andi	t0,t0,15
    4a44:	07f37713          	andi	a4,t1,127
    4a48:	021585b3          	mul	a1,a1,ra
    4a4c:	40255093          	srai	ra,a0,0x2
    4a50:	40555513          	srai	a0,a0,0x5
    4a54:	00f0f313          	andi	t1,ra,15
    4a58:	07f57093          	andi	ra,a0,127
    4a5c:	02760633          	mul	a2,a2,t2
    4a60:	4025d393          	srai	t2,a1,0x2
    4a64:	4055d593          	srai	a1,a1,0x5
    4a68:	00f3f513          	andi	a0,t2,15
    4a6c:	07f5f393          	andi	t2,a1,127
    4a70:	02e28733          	mul	a4,t0,a4
    4a74:	40265293          	srai	t0,a2,0x2
    4a78:	40565613          	srai	a2,a2,0x5
    4a7c:	00f2f593          	andi	a1,t0,15
    4a80:	07f67293          	andi	t0,a2,127
    4a84:	02130333          	mul	t1,t1,ra
    4a88:	00e787b3          	add	a5,a5,a4
    4a8c:	027500b3          	mul	ra,a0,t2
    4a90:	00678533          	add	a0,a5,t1
    4a94:	025583b3          	mul	t2,a1,t0
    4a98:	00150733          	add	a4,a0,ra
    4a9c:	007707b3          	add	a5,a4,t2
    4aa0:	f498ece3          	bltu	a7,s1,49f8 <calc_func+0x1408>
    4aa4:	00ff2023          	sw	a5,0(t5)
    4aa8:	001e0e13          	addi	t3,t3,1
    4aac:	004f0f13          	addi	t5,t5,4
    4ab0:	002b8b93          	addi	s7,s7,2
    4ab4:	e69e64e3          	bltu	t3,s1,491c <calc_func+0x132c>
    4ab8:	001a0a13          	addi	s4,s4,1
    4abc:	41ae82b3          	sub	t0,t4,s10
    4ac0:	009a8ab3          	add	s5,s5,s1
    4ac4:	e29a68e3          	bltu	s4,s1,48f4 <calc_func+0x1304>
    4ac8:	01c12a83          	lw	s5,28(sp)
    4acc:	00000413          	li	s0,0
    4ad0:	00000b93          	li	s7,0
    4ad4:	00000893          	li	a7,0
    4ad8:	00000593          	li	a1,0
    4adc:	00000b13          	li	s6,0
    4ae0:	00241a13          	slli	s4,s0,0x2
    4ae4:	014a8c33          	add	s8,s5,s4
    4ae8:	00088c93          	mv	s9,a7
    4aec:	000c2883          	lw	a7,0(s8)
    4af0:	fff48d13          	addi	s10,s1,-1
    4af4:	010b9f93          	slli	t6,s7,0x10
    4af8:	011585b3          	add	a1,a1,a7
    4afc:	003d7e93          	andi	t4,s10,3
    4b00:	010fdb93          	srli	s7,t6,0x10
    4b04:	3eb95463          	bge	s2,a1,4eec <calc_func+0x18fc>
    4b08:	00ab8613          	addi	a2,s7,10
    4b0c:	01061593          	slli	a1,a2,0x10
    4b10:	01061293          	slli	t0,a2,0x10
    4b14:	0105d513          	srli	a0,a1,0x10
    4b18:	4102db93          	srai	s7,t0,0x10
    4b1c:	00000593          	li	a1,0
    4b20:	00100313          	li	t1,1
    4b24:	004c0813          	addi	a6,s8,4
    4b28:	1e937c63          	bgeu	t1,s1,4d20 <calc_func+0x1730>
    4b2c:	140e8463          	beqz	t4,4c74 <calc_func+0x1684>
    4b30:	066e8663          	beq	t4,t1,4b9c <calc_func+0x15ac>
    4b34:	00200093          	li	ra,2
    4b38:	021e8a63          	beq	t4,ra,4b6c <calc_func+0x157c>
    4b3c:	00088513          	mv	a0,a7
    4b40:	004c2883          	lw	a7,4(s8)
    4b44:	010b9793          	slli	a5,s7,0x10
    4b48:	0107d393          	srli	t2,a5,0x10
    4b4c:	011585b3          	add	a1,a1,a7
    4b50:	46b94263          	blt	s2,a1,4fb4 <calc_func+0x19c4>
    4b54:	01152733          	slt	a4,a0,a7
    4b58:	00e38a33          	add	s4,t2,a4
    4b5c:	010a1c13          	slli	s8,s4,0x10
    4b60:	410c5b93          	srai	s7,s8,0x10
    4b64:	00130313          	addi	t1,t1,1
    4b68:	00480813          	addi	a6,a6,4
    4b6c:	00088e93          	mv	t4,a7
    4b70:	00082883          	lw	a7,0(a6)
    4b74:	010b9f93          	slli	t6,s7,0x10
    4b78:	010fdb93          	srli	s7,t6,0x10
    4b7c:	011585b3          	add	a1,a1,a7
    4b80:	40b94663          	blt	s2,a1,4f8c <calc_func+0x199c>
    4b84:	011eaf33          	slt	t5,t4,a7
    4b88:	01eb8e33          	add	t3,s7,t5
    4b8c:	010e1693          	slli	a3,t3,0x10
    4b90:	4106db93          	srai	s7,a3,0x10
    4b94:	00130313          	addi	t1,t1,1
    4b98:	00480813          	addi	a6,a6,4
    4b9c:	00088293          	mv	t0,a7
    4ba0:	00082883          	lw	a7,0(a6)
    4ba4:	010b9093          	slli	ra,s7,0x10
    4ba8:	0100d793          	srli	a5,ra,0x10
    4bac:	011585b3          	add	a1,a1,a7
    4bb0:	38b94863          	blt	s2,a1,4f40 <calc_func+0x1950>
    4bb4:	0112a533          	slt	a0,t0,a7
    4bb8:	00a783b3          	add	t2,a5,a0
    4bbc:	01039713          	slli	a4,t2,0x10
    4bc0:	01039a13          	slli	s4,t2,0x10
    4bc4:	01075513          	srli	a0,a4,0x10
    4bc8:	410a5b93          	srai	s7,s4,0x10
    4bcc:	00130313          	addi	t1,t1,1
    4bd0:	00480813          	addi	a6,a6,4
    4bd4:	0a936063          	bltu	t1,s1,4c74 <calc_func+0x1684>
    4bd8:	1480006f          	j	4d20 <calc_func+0x1730>
    4bdc:	00482083          	lw	ra,4(a6)
    4be0:	00ab8613          	addi	a2,s7,10
    4be4:	01061293          	slli	t0,a2,0x10
    4be8:	4102d593          	srai	a1,t0,0x10
    4bec:	00000f13          	li	t5,0
    4bf0:	01059793          	slli	a5,a1,0x10
    4bf4:	001f0fb3          	add	t6,t5,ra
    4bf8:	00130313          	addi	t1,t1,1
    4bfc:	00480813          	addi	a6,a6,4
    4c00:	0107d393          	srli	t2,a5,0x10
    4c04:	0bf95863          	bge	s2,t6,4cb4 <calc_func+0x16c4>
    4c08:	00a38c13          	addi	s8,t2,10
    4c0c:	00482e83          	lw	t4,4(a6)
    4c10:	010c1c93          	slli	s9,s8,0x10
    4c14:	410cdd13          	srai	s10,s9,0x10
    4c18:	00000f93          	li	t6,0
    4c1c:	010d1b93          	slli	s7,s10,0x10
    4c20:	01df83b3          	add	t2,t6,t4
    4c24:	010bdf13          	srli	t5,s7,0x10
    4c28:	0a794863          	blt	s2,t2,4cd8 <calc_func+0x16e8>
    4c2c:	01d0a8b3          	slt	a7,ra,t4
    4c30:	011f0e33          	add	t3,t5,a7
    4c34:	00882883          	lw	a7,8(a6)
    4c38:	010e1693          	slli	a3,t3,0x10
    4c3c:	4106d293          	srai	t0,a3,0x10
    4c40:	01029093          	slli	ra,t0,0x10
    4c44:	011385b3          	add	a1,t2,a7
    4c48:	0100d793          	srli	a5,ra,0x10
    4c4c:	0ab94863          	blt	s2,a1,4cfc <calc_func+0x170c>
    4c50:	011ea533          	slt	a0,t4,a7
    4c54:	00a78733          	add	a4,a5,a0
    4c58:	01071a13          	slli	s4,a4,0x10
    4c5c:	01071c13          	slli	s8,a4,0x10
    4c60:	00330313          	addi	t1,t1,3
    4c64:	010a5513          	srli	a0,s4,0x10
    4c68:	410c5b93          	srai	s7,s8,0x10
    4c6c:	00c80813          	addi	a6,a6,12
    4c70:	0a937863          	bgeu	t1,s1,4d20 <calc_func+0x1730>
    4c74:	00082e83          	lw	t4,0(a6)
    4c78:	010b9f93          	slli	t6,s7,0x10
    4c7c:	010fdb93          	srli	s7,t6,0x10
    4c80:	01d58f33          	add	t5,a1,t4
    4c84:	f5e94ce3          	blt	s2,t5,4bdc <calc_func+0x15ec>
    4c88:	01d8a8b3          	slt	a7,a7,t4
    4c8c:	00482083          	lw	ra,4(a6)
    4c90:	011b8e33          	add	t3,s7,a7
    4c94:	010e1693          	slli	a3,t3,0x10
    4c98:	4106d593          	srai	a1,a3,0x10
    4c9c:	01059793          	slli	a5,a1,0x10
    4ca0:	001f0fb3          	add	t6,t5,ra
    4ca4:	00130313          	addi	t1,t1,1
    4ca8:	00480813          	addi	a6,a6,4
    4cac:	0107d393          	srli	t2,a5,0x10
    4cb0:	f5f94ce3          	blt	s2,t6,4c08 <calc_func+0x1618>
    4cb4:	001ea533          	slt	a0,t4,ra
    4cb8:	00a38733          	add	a4,t2,a0
    4cbc:	00482e83          	lw	t4,4(a6)
    4cc0:	01071a13          	slli	s4,a4,0x10
    4cc4:	410a5d13          	srai	s10,s4,0x10
    4cc8:	010d1b93          	slli	s7,s10,0x10
    4ccc:	01df83b3          	add	t2,t6,t4
    4cd0:	010bdf13          	srli	t5,s7,0x10
    4cd4:	f4795ce3          	bge	s2,t2,4c2c <calc_func+0x163c>
    4cd8:	00af0593          	addi	a1,t5,10
    4cdc:	00882883          	lw	a7,8(a6)
    4ce0:	01059613          	slli	a2,a1,0x10
    4ce4:	41065293          	srai	t0,a2,0x10
    4ce8:	00000393          	li	t2,0
    4cec:	01029093          	slli	ra,t0,0x10
    4cf0:	011385b3          	add	a1,t2,a7
    4cf4:	0100d793          	srli	a5,ra,0x10
    4cf8:	f4b95ce3          	bge	s2,a1,4c50 <calc_func+0x1660>
    4cfc:	00a78c93          	addi	s9,a5,10
    4d00:	010c9d13          	slli	s10,s9,0x10
    4d04:	010c9f93          	slli	t6,s9,0x10
    4d08:	00330313          	addi	t1,t1,3
    4d0c:	010d5513          	srli	a0,s10,0x10
    4d10:	410fdb93          	srai	s7,t6,0x10
    4d14:	00000593          	li	a1,0
    4d18:	00c80813          	addi	a6,a6,12
    4d1c:	f4936ce3          	bltu	t1,s1,4c74 <calc_func+0x1684>
    4d20:	001b0b13          	addi	s6,s6,1
    4d24:	00940433          	add	s0,s0,s1
    4d28:	da9b6ce3          	bltu	s6,s1,4ae0 <calc_func+0x14f0>
    4d2c:	000d8593          	mv	a1,s11
    4d30:	fd5fd0ef          	jal	ra,2d04 <crcu16>
    4d34:	00c12403          	lw	s0,12(sp)
    4d38:	00000913          	li	s2,0
    4d3c:	00000d93          	li	s11,0
    4d40:	00191b13          	slli	s6,s2,0x1
    4d44:	01640ab3          	add	s5,s0,s6
    4d48:	000ade83          	lhu	t4,0(s5)
    4d4c:	fff48f13          	addi	t5,s1,-1
    4d50:	00100713          	li	a4,1
    4d54:	413e8e33          	sub	t3,t4,s3
    4d58:	01ca9023          	sh	t3,0(s5)
    4d5c:	007f7693          	andi	a3,t5,7
    4d60:	002a8793          	addi	a5,s5,2
    4d64:	12977863          	bgeu	a4,s1,4e94 <calc_func+0x18a4>
    4d68:	0c068063          	beqz	a3,4e28 <calc_func+0x1838>
    4d6c:	0ae68263          	beq	a3,a4,4e10 <calc_func+0x1820>
    4d70:	00200613          	li	a2,2
    4d74:	08c68463          	beq	a3,a2,4dfc <calc_func+0x180c>
    4d78:	00300293          	li	t0,3
    4d7c:	06568663          	beq	a3,t0,4de8 <calc_func+0x17f8>
    4d80:	00400393          	li	t2,4
    4d84:	04768863          	beq	a3,t2,4dd4 <calc_func+0x17e4>
    4d88:	00500893          	li	a7,5
    4d8c:	03168a63          	beq	a3,a7,4dc0 <calc_func+0x17d0>
    4d90:	00600093          	li	ra,6
    4d94:	00168c63          	beq	a3,ra,4dac <calc_func+0x17bc>
    4d98:	002ada03          	lhu	s4,2(s5)
    4d9c:	00200713          	li	a4,2
    4da0:	004a8793          	addi	a5,s5,4
    4da4:	413a0c33          	sub	s8,s4,s3
    4da8:	018a9123          	sh	s8,2(s5)
    4dac:	0007dc83          	lhu	s9,0(a5)
    4db0:	00170713          	addi	a4,a4,1
    4db4:	00278793          	addi	a5,a5,2
    4db8:	413c8d33          	sub	s10,s9,s3
    4dbc:	ffa79f23          	sh	s10,-2(a5)
    4dc0:	0007df83          	lhu	t6,0(a5)
    4dc4:	00170713          	addi	a4,a4,1
    4dc8:	00278793          	addi	a5,a5,2
    4dcc:	413f8bb3          	sub	s7,t6,s3
    4dd0:	ff779f23          	sh	s7,-2(a5)
    4dd4:	0007d583          	lhu	a1,0(a5)
    4dd8:	00170713          	addi	a4,a4,1
    4ddc:	00278793          	addi	a5,a5,2
    4de0:	41358333          	sub	t1,a1,s3
    4de4:	fe679f23          	sh	t1,-2(a5)
    4de8:	0007d803          	lhu	a6,0(a5)
    4dec:	00170713          	addi	a4,a4,1
    4df0:	00278793          	addi	a5,a5,2
    4df4:	41380b33          	sub	s6,a6,s3
    4df8:	ff679f23          	sh	s6,-2(a5)
    4dfc:	0007da83          	lhu	s5,0(a5)
    4e00:	00170713          	addi	a4,a4,1
    4e04:	00278793          	addi	a5,a5,2
    4e08:	413a8eb3          	sub	t4,s5,s3
    4e0c:	ffd79f23          	sh	t4,-2(a5)
    4e10:	0007df03          	lhu	t5,0(a5)
    4e14:	00278793          	addi	a5,a5,2
    4e18:	00170713          	addi	a4,a4,1
    4e1c:	413f0e33          	sub	t3,t5,s3
    4e20:	ffc79f23          	sh	t3,-2(a5)
    4e24:	06977863          	bgeu	a4,s1,4e94 <calc_func+0x18a4>
    4e28:	0007d283          	lhu	t0,0(a5)
    4e2c:	0027d383          	lhu	t2,2(a5)
    4e30:	0047d883          	lhu	a7,4(a5)
    4e34:	0067d083          	lhu	ra,6(a5)
    4e38:	0087da03          	lhu	s4,8(a5)
    4e3c:	00a7dc03          	lhu	s8,10(a5)
    4e40:	00c7d603          	lhu	a2,12(a5)
    4e44:	00e7d683          	lhu	a3,14(a5)
    4e48:	41328cb3          	sub	s9,t0,s3
    4e4c:	41338d33          	sub	s10,t2,s3
    4e50:	41388fb3          	sub	t6,a7,s3
    4e54:	41308bb3          	sub	s7,ra,s3
    4e58:	413a0333          	sub	t1,s4,s3
    4e5c:	413c05b3          	sub	a1,s8,s3
    4e60:	41360833          	sub	a6,a2,s3
    4e64:	41368b33          	sub	s6,a3,s3
    4e68:	01979023          	sh	s9,0(a5)
    4e6c:	01a79123          	sh	s10,2(a5)
    4e70:	01f79223          	sh	t6,4(a5)
    4e74:	01779323          	sh	s7,6(a5)
    4e78:	00679423          	sh	t1,8(a5)
    4e7c:	00b79523          	sh	a1,10(a5)
    4e80:	01079623          	sh	a6,12(a5)
    4e84:	01679723          	sh	s6,14(a5)
    4e88:	00870713          	addi	a4,a4,8
    4e8c:	01078793          	addi	a5,a5,16
    4e90:	f8976ce3          	bltu	a4,s1,4e28 <calc_func+0x1838>
    4e94:	001d8d93          	addi	s11,s11,1
    4e98:	00990933          	add	s2,s2,s1
    4e9c:	ea9de2e3          	bltu	s11,s1,4d40 <calc_func+0x1750>
    4ea0:	00412483          	lw	s1,4(sp)
    4ea4:	0384d403          	lhu	s0,56(s1)
    4ea8:	02012583          	lw	a1,32(sp)
    4eac:	e59fd0ef          	jal	ra,2d04 <crcu16>
    4eb0:	00412983          	lw	s3,4(sp)
    4eb4:	01051d93          	slli	s11,a0,0x10
    4eb8:	410dda93          	srai	s5,s11,0x10
    4ebc:	03c9d903          	lhu	s2,60(s3)
    4ec0:	00090463          	beqz	s2,4ec8 <calc_func+0x18d8>
    4ec4:	955fe06f          	j	3818 <calc_func+0x228>
    4ec8:	02a99e23          	sh	a0,60(s3)
    4ecc:	94dfe06f          	j	3818 <calc_func+0x228>
    4ed0:	01072d33          	slt	s10,a4,a6
    4ed4:	01a78eb3          	add	t4,a5,s10
    4ed8:	010e9d93          	slli	s11,t4,0x10
    4edc:	010e9c13          	slli	s8,t4,0x10
    4ee0:	010ddd93          	srli	s11,s11,0x10
    4ee4:	410c5c13          	srai	s8,s8,0x10
    4ee8:	fd8ff06f          	j	46c0 <calc_func+0x10d0>
    4eec:	011caf33          	slt	t5,s9,a7
    4ef0:	01eb8e33          	add	t3,s7,t5
    4ef4:	010e1813          	slli	a6,t3,0x10
    4ef8:	010e1693          	slli	a3,t3,0x10
    4efc:	01085513          	srli	a0,a6,0x10
    4f00:	4106db93          	srai	s7,a3,0x10
    4f04:	c1dff06f          	j	4b20 <calc_func+0x1530>
    4f08:	0112a7b3          	slt	a5,t0,a7
    4f0c:	00fa8c33          	add	s8,s5,a5
    4f10:	010c1093          	slli	ra,s8,0x10
    4f14:	010c1b93          	slli	s7,s8,0x10
    4f18:	0100da13          	srli	s4,ra,0x10
    4f1c:	410bdf13          	srai	t5,s7,0x10
    4f20:	ae8ff06f          	j	4208 <calc_func+0xc18>
    4f24:	00ac8713          	addi	a4,s9,10
    4f28:	01071693          	slli	a3,a4,0x10
    4f2c:	01071e13          	slli	t3,a4,0x10
    4f30:	0106dd93          	srli	s11,a3,0x10
    4f34:	410e5c13          	srai	s8,t3,0x10
    4f38:	00000b93          	li	s7,0
    4f3c:	831ff06f          	j	476c <calc_func+0x117c>
    4f40:	00a78c13          	addi	s8,a5,10
    4f44:	010c1c93          	slli	s9,s8,0x10
    4f48:	010c1d13          	slli	s10,s8,0x10
    4f4c:	010cd513          	srli	a0,s9,0x10
    4f50:	410d5b93          	srai	s7,s10,0x10
    4f54:	00000593          	li	a1,0
    4f58:	c75ff06f          	j	4bcc <calc_func+0x15dc>
    4f5c:	00ad0a93          	addi	s5,s10,10
    4f60:	010a9c13          	slli	s8,s5,0x10
    4f64:	010a9793          	slli	a5,s5,0x10
    4f68:	010c5a13          	srli	s4,s8,0x10
    4f6c:	4107df13          	srai	t5,a5,0x10
    4f70:	00000513          	li	a0,0
    4f74:	b40ff06f          	j	42b4 <calc_func+0xcc4>
    4f78:	00a08513          	addi	a0,ra,10
    4f7c:	01051a13          	slli	s4,a0,0x10
    4f80:	410a5f13          	srai	t5,s4,0x10
    4f84:	00000513          	li	a0,0
    4f88:	af4ff06f          	j	427c <calc_func+0xc8c>
    4f8c:	00ab8613          	addi	a2,s7,10
    4f90:	01061593          	slli	a1,a2,0x10
    4f94:	4105db93          	srai	s7,a1,0x10
    4f98:	00000593          	li	a1,0
    4f9c:	bf9ff06f          	j	4b94 <calc_func+0x15a4>
    4fa0:	00ad0513          	addi	a0,s10,10
    4fa4:	01051b93          	slli	s7,a0,0x10
    4fa8:	410bdc13          	srai	s8,s7,0x10
    4fac:	00000b93          	li	s7,0
    4fb0:	f84ff06f          	j	4734 <calc_func+0x1144>
    4fb4:	00a38c93          	addi	s9,t2,10
    4fb8:	010c9d13          	slli	s10,s9,0x10
    4fbc:	410d5b93          	srai	s7,s10,0x10
    4fc0:	00000593          	li	a1,0
    4fc4:	ba1ff06f          	j	4b64 <calc_func+0x1574>
    4fc8:	00af0713          	addi	a4,t5,10
    4fcc:	01071693          	slli	a3,a4,0x10
    4fd0:	4106dc13          	srai	s8,a3,0x10
    4fd4:	00000b93          	li	s7,0
    4fd8:	f2cff06f          	j	4704 <calc_func+0x1114>
    4fdc:	00ad0e13          	addi	t3,s10,10
    4fe0:	010e1a93          	slli	s5,t3,0x10
    4fe4:	410adf13          	srai	t5,s5,0x10
    4fe8:	00000513          	li	a0,0
    4fec:	a60ff06f          	j	424c <calc_func+0xc5c>
    4ff0:	00412083          	lw	ra,4(sp)
    4ff4:	0380d403          	lhu	s0,56(ra)
    4ff8:	02a09f23          	sh	a0,62(ra)
    4ffc:	81dfe06f          	j	3818 <calc_func+0x228>
    5000:	00000593          	li	a1,0
    5004:	00000513          	li	a0,0
    5008:	cfdfd0ef          	jal	ra,2d04 <crcu16>
    500c:	00050593          	mv	a1,a0
    5010:	00000513          	li	a0,0
    5014:	cf1fd0ef          	jal	ra,2d04 <crcu16>
    5018:	00050593          	mv	a1,a0
    501c:	00000513          	li	a0,0
    5020:	ce5fd0ef          	jal	ra,2d04 <crcu16>
    5024:	00050593          	mv	a1,a0
    5028:	00000513          	li	a0,0
    502c:	cd9fd0ef          	jal	ra,2d04 <crcu16>
    5030:	e79ff06f          	j	4ea8 <calc_func+0x18b8>
    5034:	03612e23          	sw	s6,60(sp)
    5038:	000a8463          	beqz	s5,5040 <calc_func+0x1a50>
    503c:	92dfe06f          	j	3968 <calc_func+0x378>
    5040:	985fe06f          	j	39c4 <calc_func+0x3d4>

00005044 <cmp_complex>:
    5044:	ff010113          	addi	sp,sp,-16
    5048:	00912223          	sw	s1,4(sp)
    504c:	00058493          	mv	s1,a1
    5050:	00060593          	mv	a1,a2
    5054:	00112623          	sw	ra,12(sp)
    5058:	00812423          	sw	s0,8(sp)
    505c:	00060413          	mv	s0,a2
    5060:	d90fe0ef          	jal	ra,35f0 <calc_func>
    5064:	00050793          	mv	a5,a0
    5068:	00040593          	mv	a1,s0
    506c:	00048513          	mv	a0,s1
    5070:	00078413          	mv	s0,a5
    5074:	d7cfe0ef          	jal	ra,35f0 <calc_func>
    5078:	00c12083          	lw	ra,12(sp)
    507c:	40a40533          	sub	a0,s0,a0
    5080:	00812403          	lw	s0,8(sp)
    5084:	00412483          	lw	s1,4(sp)
    5088:	01010113          	addi	sp,sp,16
    508c:	00008067          	ret

00005090 <number>:
    5090:	f7010113          	addi	sp,sp,-144
    5094:	09212023          	sw	s2,128(sp)
    5098:	07412c23          	sw	s4,120(sp)
    509c:	08112623          	sw	ra,140(sp)
    50a0:	08812423          	sw	s0,136(sp)
    50a4:	08912223          	sw	s1,132(sp)
    50a8:	07312e23          	sw	s3,124(sp)
    50ac:	07512a23          	sw	s5,116(sp)
    50b0:	07612823          	sw	s6,112(sp)
    50b4:	07712623          	sw	s7,108(sp)
    50b8:	07812423          	sw	s8,104(sp)
    50bc:	07912223          	sw	s9,100(sp)
    50c0:	07a12023          	sw	s10,96(sp)
    50c4:	05b12e23          	sw	s11,92(sp)
    50c8:	0407f813          	andi	a6,a5,64
    50cc:	00050913          	mv	s2,a0
    50d0:	00060a13          	mv	s4,a2
    50d4:	2c080463          	beqz	a6,539c <number+0x30c>
    50d8:	001002b7          	lui	t0,0x100
    50dc:	16428093          	addi	ra,t0,356 # 100164 <__clz_tab+0x164>
    50e0:	0107fc13          	andi	s8,a5,16
    50e4:	280c0c63          	beqz	s8,537c <number+0x2ec>
    50e8:	ffe7f793          	andi	a5,a5,-2
    50ec:	000c0e13          	mv	t3,s8
    50f0:	0027f513          	andi	a0,a5,2
    50f4:	02000c93          	li	s9,32
    50f8:	0207fd13          	andi	s10,a5,32
    50fc:	2a050663          	beqz	a0,53a8 <number+0x318>
    5100:	2a05c863          	bltz	a1,53b0 <number+0x320>
    5104:	0047f393          	andi	t2,a5,4
    5108:	2e039663          	bnez	t2,53f4 <number+0x364>
    510c:	0087f793          	andi	a5,a5,8
    5110:	00000d93          	li	s11,0
    5114:	00078663          	beqz	a5,5120 <number+0x90>
    5118:	fff68693          	addi	a3,a3,-1
    511c:	02000d93          	li	s11,32
    5120:	000d0c63          	beqz	s10,5138 <number+0xa8>
    5124:	01000413          	li	s0,16
    5128:	2e8a0863          	beq	s4,s0,5418 <number+0x388>
    512c:	ff8a0493          	addi	s1,s4,-8
    5130:	0014b893          	seqz	a7,s1
    5134:	411686b3          	sub	a3,a3,a7
    5138:	28059463          	bnez	a1,53c0 <number+0x330>
    513c:	03000593          	li	a1,48
    5140:	00b10623          	sb	a1,12(sp)
    5144:	00000a93          	li	s5,0
    5148:	03000b13          	li	s6,48
    514c:	00100493          	li	s1,1
    5150:	00c10413          	addi	s0,sp,12
    5154:	00048993          	mv	s3,s1
    5158:	00e4d463          	bge	s1,a4,5160 <number+0xd0>
    515c:	00070993          	mv	s3,a4
    5160:	41368bb3          	sub	s7,a3,s3
    5164:	020e1263          	bnez	t3,5188 <number+0xf8>
    5168:	fffb8693          	addi	a3,s7,-1
    516c:	2d705663          	blez	s7,5438 <number+0x3a8>
    5170:	000b8613          	mv	a2,s7
    5174:	00090513          	mv	a0,s2
    5178:	02000593          	li	a1,32
    517c:	01790933          	add	s2,s2,s7
    5180:	80dfd0ef          	jal	ra,298c <memset>
    5184:	fff00b93          	li	s7,-1
    5188:	000d8663          	beqz	s11,5194 <number+0x104>
    518c:	01b90023          	sb	s11,0(s2)
    5190:	00190913          	addi	s2,s2,1
    5194:	000d0a63          	beqz	s10,51a8 <number+0x118>
    5198:	00800713          	li	a4,8
    519c:	28ea0263          	beq	s4,a4,5420 <number+0x390>
    51a0:	01000f13          	li	t5,16
    51a4:	25ea0e63          	beq	s4,t5,5400 <number+0x370>
    51a8:	020c1263          	bnez	s8,51cc <number+0x13c>
    51ac:	fffb8313          	addi	t1,s7,-1
    51b0:	29705063          	blez	s7,5430 <number+0x3a0>
    51b4:	000b8613          	mv	a2,s7
    51b8:	00090513          	mv	a0,s2
    51bc:	000c8593          	mv	a1,s9
    51c0:	01790933          	add	s2,s2,s7
    51c4:	fc8fd0ef          	jal	ra,298c <memset>
    51c8:	fff00b93          	li	s7,-1
    51cc:	0134de63          	bge	s1,s3,51e8 <number+0x158>
    51d0:	40998c33          	sub	s8,s3,s1
    51d4:	00090513          	mv	a0,s2
    51d8:	000c0613          	mv	a2,s8
    51dc:	03000593          	li	a1,48
    51e0:	facfd0ef          	jal	ra,298c <memset>
    51e4:	01890933          	add	s2,s2,s8
    51e8:	007af093          	andi	ra,s5,7
    51ec:	015407b3          	add	a5,s0,s5
    51f0:	00100293          	li	t0,1
    51f4:	00090413          	mv	s0,s2
    51f8:	10008663          	beqz	ra,5304 <number+0x274>
    51fc:	00190413          	addi	s0,s2,1
    5200:	40828633          	sub	a2,t0,s0
    5204:	01560e33          	add	t3,a2,s5
    5208:	01c90cb3          	add	s9,s2,t3
    520c:	ff640fa3          	sb	s6,-1(s0)
    5210:	fff78793          	addi	a5,a5,-1
    5214:	11905463          	blez	s9,531c <number+0x28c>
    5218:	0007cb03          	lbu	s6,0(a5)
    521c:	0e508463          	beq	ra,t0,5304 <number+0x274>
    5220:	00200513          	li	a0,2
    5224:	06a08a63          	beq	ra,a0,5298 <number+0x208>
    5228:	00300d13          	li	s10,3
    522c:	05a08e63          	beq	ra,s10,5288 <number+0x1f8>
    5230:	00400d93          	li	s11,4
    5234:	05b08263          	beq	ra,s11,5278 <number+0x1e8>
    5238:	00500393          	li	t2,5
    523c:	02708663          	beq	ra,t2,5268 <number+0x1d8>
    5240:	00600893          	li	a7,6
    5244:	01108a63          	beq	ra,a7,5258 <number+0x1c8>
    5248:	016900a3          	sb	s6,1(s2)
    524c:	fff78793          	addi	a5,a5,-1
    5250:	0007cb03          	lbu	s6,0(a5)
    5254:	00290413          	addi	s0,s2,2
    5258:	01640023          	sb	s6,0(s0)
    525c:	fff78793          	addi	a5,a5,-1
    5260:	0007cb03          	lbu	s6,0(a5)
    5264:	00140413          	addi	s0,s0,1
    5268:	01640023          	sb	s6,0(s0)
    526c:	fff78793          	addi	a5,a5,-1
    5270:	0007cb03          	lbu	s6,0(a5)
    5274:	00140413          	addi	s0,s0,1
    5278:	01640023          	sb	s6,0(s0)
    527c:	fff78793          	addi	a5,a5,-1
    5280:	0007cb03          	lbu	s6,0(a5)
    5284:	00140413          	addi	s0,s0,1
    5288:	01640023          	sb	s6,0(s0)
    528c:	fff78793          	addi	a5,a5,-1
    5290:	0007cb03          	lbu	s6,0(a5)
    5294:	00140413          	addi	s0,s0,1
    5298:	00140413          	addi	s0,s0,1
    529c:	fff78793          	addi	a5,a5,-1
    52a0:	00140493          	addi	s1,s0,1
    52a4:	ff640fa3          	sb	s6,-1(s0)
    52a8:	0007cb03          	lbu	s6,0(a5)
    52ac:	40928eb3          	sub	t4,t0,s1
    52b0:	015e85b3          	add	a1,t4,s5
    52b4:	01640023          	sb	s6,0(s0)
    52b8:	00b909b3          	add	s3,s2,a1
    52bc:	07305063          	blez	s3,531c <number+0x28c>
    52c0:	fff7c703          	lbu	a4,-1(a5)
    52c4:	ffe7cf03          	lbu	t5,-2(a5)
    52c8:	ffd7cf83          	lbu	t6,-3(a5)
    52cc:	ffc7c803          	lbu	a6,-4(a5)
    52d0:	ffb7ca03          	lbu	s4,-5(a5)
    52d4:	ffa7c303          	lbu	t1,-6(a5)
    52d8:	ff97cc03          	lbu	s8,-7(a5)
    52dc:	00e400a3          	sb	a4,1(s0)
    52e0:	01e40123          	sb	t5,2(s0)
    52e4:	ff87cb03          	lbu	s6,-8(a5)
    52e8:	01f401a3          	sb	t6,3(s0)
    52ec:	01040223          	sb	a6,4(s0)
    52f0:	014402a3          	sb	s4,5(s0)
    52f4:	00640323          	sb	t1,6(s0)
    52f8:	ff878793          	addi	a5,a5,-8
    52fc:	00840413          	addi	s0,s0,8
    5300:	ff840fa3          	sb	s8,-1(s0)
    5304:	00140493          	addi	s1,s0,1
    5308:	40928eb3          	sub	t4,t0,s1
    530c:	015e85b3          	add	a1,t4,s5
    5310:	01640023          	sb	s6,0(s0)
    5314:	00b909b3          	add	s3,s2,a1
    5318:	fb3044e3          	bgtz	s3,52c0 <number+0x230>
    531c:	001a8a93          	addi	s5,s5,1
    5320:	015906b3          	add	a3,s2,s5
    5324:	01705c63          	blez	s7,533c <number+0x2ac>
    5328:	00068513          	mv	a0,a3
    532c:	000b8613          	mv	a2,s7
    5330:	02000593          	li	a1,32
    5334:	e58fd0ef          	jal	ra,298c <memset>
    5338:	017506b3          	add	a3,a0,s7
    533c:	08c12083          	lw	ra,140(sp)
    5340:	08812403          	lw	s0,136(sp)
    5344:	08412483          	lw	s1,132(sp)
    5348:	08012903          	lw	s2,128(sp)
    534c:	07c12983          	lw	s3,124(sp)
    5350:	07812a03          	lw	s4,120(sp)
    5354:	07412a83          	lw	s5,116(sp)
    5358:	07012b03          	lw	s6,112(sp)
    535c:	06c12b83          	lw	s7,108(sp)
    5360:	06812c03          	lw	s8,104(sp)
    5364:	06412c83          	lw	s9,100(sp)
    5368:	06012d03          	lw	s10,96(sp)
    536c:	05c12d83          	lw	s11,92(sp)
    5370:	00068513          	mv	a0,a3
    5374:	09010113          	addi	sp,sp,144
    5378:	00008067          	ret
    537c:	0017f613          	andi	a2,a5,1
    5380:	0117fe13          	andi	t3,a5,17
    5384:	03000c93          	li	s9,48
    5388:	d60604e3          	beqz	a2,50f0 <number+0x60>
    538c:	0027f513          	andi	a0,a5,2
    5390:	0207fd13          	andi	s10,a5,32
    5394:	00050a63          	beqz	a0,53a8 <number+0x318>
    5398:	d69ff06f          	j	5100 <number+0x70>
    539c:	00100337          	lui	t1,0x100
    53a0:	13c30093          	addi	ra,t1,316 # 10013c <__clz_tab+0x13c>
    53a4:	d3dff06f          	j	50e0 <number+0x50>
    53a8:	00000d93          	li	s11,0
    53ac:	d75ff06f          	j	5120 <number+0x90>
    53b0:	40b005b3          	neg	a1,a1
    53b4:	fff68693          	addi	a3,a3,-1
    53b8:	02d00d93          	li	s11,45
    53bc:	d60d14e3          	bnez	s10,5124 <number+0x94>
    53c0:	00000493          	li	s1,0
    53c4:	00c10413          	addi	s0,sp,12
    53c8:	0345f9b3          	remu	s3,a1,s4
    53cc:	00048a93          	mv	s5,s1
    53d0:	00148493          	addi	s1,s1,1
    53d4:	00940bb3          	add	s7,s0,s1
    53d8:	00058e93          	mv	t4,a1
    53dc:	01308b33          	add	s6,ra,s3
    53e0:	000b4b03          	lbu	s6,0(s6)
    53e4:	0345d5b3          	divu	a1,a1,s4
    53e8:	ff6b8fa3          	sb	s6,-1(s7)
    53ec:	fd4efee3          	bgeu	t4,s4,53c8 <number+0x338>
    53f0:	d65ff06f          	j	5154 <number+0xc4>
    53f4:	fff68693          	addi	a3,a3,-1
    53f8:	02b00d93          	li	s11,43
    53fc:	d25ff06f          	j	5120 <number+0x90>
    5400:	03000f93          	li	t6,48
    5404:	07800813          	li	a6,120
    5408:	01f90023          	sb	t6,0(s2)
    540c:	010900a3          	sb	a6,1(s2)
    5410:	00290913          	addi	s2,s2,2
    5414:	d95ff06f          	j	51a8 <number+0x118>
    5418:	ffe68693          	addi	a3,a3,-2
    541c:	d1dff06f          	j	5138 <number+0xa8>
    5420:	03000a13          	li	s4,48
    5424:	01490023          	sb	s4,0(s2)
    5428:	00190913          	addi	s2,s2,1
    542c:	d7dff06f          	j	51a8 <number+0x118>
    5430:	00030b93          	mv	s7,t1
    5434:	d99ff06f          	j	51cc <number+0x13c>
    5438:	00068b93          	mv	s7,a3
    543c:	d4dff06f          	j	5188 <number+0xf8>

00005440 <iterate>:
    5440:	fe010113          	addi	sp,sp,-32
    5444:	01312623          	sw	s3,12(sp)
    5448:	01c52983          	lw	s3,28(a0)
    544c:	00112e23          	sw	ra,28(sp)
    5450:	00812c23          	sw	s0,24(sp)
    5454:	00912a23          	sw	s1,20(sp)
    5458:	01212823          	sw	s2,16(sp)
    545c:	01412423          	sw	s4,8(sp)
    5460:	01512223          	sw	s5,4(sp)
    5464:	02052c23          	sw	zero,56(a0)
    5468:	02052e23          	sw	zero,60(a0)
    546c:	1c098263          	beqz	s3,5630 <iterate+0x1f0>
    5470:	0039f793          	andi	a5,s3,3
    5474:	00050413          	mv	s0,a0
    5478:	00000493          	li	s1,0
    547c:	0a078e63          	beqz	a5,5538 <iterate+0xf8>
    5480:	00100713          	li	a4,1
    5484:	06e78c63          	beq	a5,a4,54fc <iterate+0xbc>
    5488:	00200093          	li	ra,2
    548c:	02178c63          	beq	a5,ra,54c4 <iterate+0x84>
    5490:	00100593          	li	a1,1
    5494:	af5fd0ef          	jal	ra,2f88 <core_bench_list>
    5498:	03845583          	lhu	a1,56(s0)
    549c:	00100493          	li	s1,1
    54a0:	865fd0ef          	jal	ra,2d04 <crcu16>
    54a4:	fff00593          	li	a1,-1
    54a8:	02a41c23          	sh	a0,56(s0)
    54ac:	00040513          	mv	a0,s0
    54b0:	ad9fd0ef          	jal	ra,2f88 <core_bench_list>
    54b4:	03845583          	lhu	a1,56(s0)
    54b8:	84dfd0ef          	jal	ra,2d04 <crcu16>
    54bc:	02a41c23          	sh	a0,56(s0)
    54c0:	02a41d23          	sh	a0,58(s0)
    54c4:	00100593          	li	a1,1
    54c8:	00040513          	mv	a0,s0
    54cc:	abdfd0ef          	jal	ra,2f88 <core_bench_list>
    54d0:	03845583          	lhu	a1,56(s0)
    54d4:	831fd0ef          	jal	ra,2d04 <crcu16>
    54d8:	fff00593          	li	a1,-1
    54dc:	02a41c23          	sh	a0,56(s0)
    54e0:	00040513          	mv	a0,s0
    54e4:	aa5fd0ef          	jal	ra,2f88 <core_bench_list>
    54e8:	03845583          	lhu	a1,56(s0)
    54ec:	819fd0ef          	jal	ra,2d04 <crcu16>
    54f0:	02a41c23          	sh	a0,56(s0)
    54f4:	18048063          	beqz	s1,5674 <iterate+0x234>
    54f8:	00148493          	addi	s1,s1,1
    54fc:	00100593          	li	a1,1
    5500:	00040513          	mv	a0,s0
    5504:	a85fd0ef          	jal	ra,2f88 <core_bench_list>
    5508:	03845583          	lhu	a1,56(s0)
    550c:	ff8fd0ef          	jal	ra,2d04 <crcu16>
    5510:	fff00593          	li	a1,-1
    5514:	02a41c23          	sh	a0,56(s0)
    5518:	00040513          	mv	a0,s0
    551c:	a6dfd0ef          	jal	ra,2f88 <core_bench_list>
    5520:	03845583          	lhu	a1,56(s0)
    5524:	fe0fd0ef          	jal	ra,2d04 <crcu16>
    5528:	02a41c23          	sh	a0,56(s0)
    552c:	12048c63          	beqz	s1,5664 <iterate+0x224>
    5530:	00148493          	addi	s1,s1,1
    5534:	0e998e63          	beq	s3,s1,5630 <iterate+0x1f0>
    5538:	00100593          	li	a1,1
    553c:	00040513          	mv	a0,s0
    5540:	a49fd0ef          	jal	ra,2f88 <core_bench_list>
    5544:	03845583          	lhu	a1,56(s0)
    5548:	00148913          	addi	s2,s1,1
    554c:	fb8fd0ef          	jal	ra,2d04 <crcu16>
    5550:	02a41c23          	sh	a0,56(s0)
    5554:	fff00593          	li	a1,-1
    5558:	00040513          	mv	a0,s0
    555c:	a2dfd0ef          	jal	ra,2f88 <core_bench_list>
    5560:	03845583          	lhu	a1,56(s0)
    5564:	fa0fd0ef          	jal	ra,2d04 <crcu16>
    5568:	00050293          	mv	t0,a0
    556c:	02541c23          	sh	t0,56(s0)
    5570:	00100593          	li	a1,1
    5574:	00040513          	mv	a0,s0
    5578:	00049463          	bnez	s1,5580 <iterate+0x140>
    557c:	02541d23          	sh	t0,58(s0)
    5580:	a09fd0ef          	jal	ra,2f88 <core_bench_list>
    5584:	03845583          	lhu	a1,56(s0)
    5588:	f7cfd0ef          	jal	ra,2d04 <crcu16>
    558c:	02a41c23          	sh	a0,56(s0)
    5590:	fff00593          	li	a1,-1
    5594:	00040513          	mv	a0,s0
    5598:	9f1fd0ef          	jal	ra,2f88 <core_bench_list>
    559c:	03845583          	lhu	a1,56(s0)
    55a0:	f64fd0ef          	jal	ra,2d04 <crcu16>
    55a4:	02a41c23          	sh	a0,56(s0)
    55a8:	00091463          	bnez	s2,55b0 <iterate+0x170>
    55ac:	02a41d23          	sh	a0,58(s0)
    55b0:	00100593          	li	a1,1
    55b4:	00040513          	mv	a0,s0
    55b8:	9d1fd0ef          	jal	ra,2f88 <core_bench_list>
